0001   0000             ; --- FILENAME: programs/life.c
0002   0000             ; --- DATE:     11-11-2025 at 19:00:21
0003   0000             .include "lib/asm/kernel.exp"
0001+  0000             fdc_al_restore   .EQU  $0000
0002+  0000             fdc_al_step      .EQU  $0001
0003+  0000             fdc_al_step_in   .EQU  $0002
0004+  0000             fdc_al_step_out  .EQU  $0003
0005+  0000             fdc_al_seek      .EQU  $0004
0006+  0000             fdc_al_format_128 .EQU  $0005
0007+  0000             fdc_al_formatdisk_128 .EQU  $0006
0008+  0000             fdc_al_format_512 .EQU  $0007
0009+  0000             fdc_al_formatdisk_512 .EQU  $0008
0010+  0000             fdc_al_read_addr .EQU  $0009
0011+  0000             fdc_al_read_track .EQU  $000a
0012+  0000             fdc_al_read_sect .EQU  $000b
0013+  0000             fdc_al_write_sect .EQU  $000c
0014+  0000             fdc_al_force_int .EQU  $000d
0015+  0000             fdc_al_status0   .EQU  $000e
0016+  0000             fdc_al_status1   .EQU  $000f
0017+  0000             noname._til311_display .EQU  $ffb0
0018+  0000             noname._fdc_config .EQU  $ffc0
0019+  0000             noname._fdc_status_0 .EQU  $ffc1
0020+  0000             noname._fdc_stat_cmd .EQU  $ffc8
0021+  0000             sys_break        .EQU  $0000
0022+  0000             sys_rtc          .EQU  $0001
0023+  0000             sys_ide          .EQU  $0002
0024+  0000             sys_io           .EQU  $0003
0025+  0000             sys_filesystem   .EQU  $0004
0026+  0000             sys_create_proc  .EQU  $0005
0027+  0000             sys_list_proc    .EQU  $0006
0028+  0000             sys_datetime     .EQU  $0007
0029+  0000             sys_reboot       .EQU  $0008
0030+  0000             sys_pause_proc   .EQU  $0009
0031+  0000             sys_resume_proc  .EQU  $000a
0032+  0000             sys_terminate_proc .EQU  $000b
0033+  0000             sys_system       .EQU  $000c
0034+  0000             sys_fdc          .EQU  $000d
0035+  0000             text_org         .EQU  $0400
0004   0000             .include "lib/asm/bios.exp"
0001+  0000             bios_reset_vector .equ  $01c0
0002+  0000             ide_buffer       .equ  $8204
0003+  0000             boot_origin      .equ  $8004
0004+  0000             bios_uart        .equ  $0002
0005+  0000             bios_ide         .equ  $0003
0005   0000             
0006   0000             ; --- BEGIN TEXT SEGMENT
0007   0400             .org text_org
0008   0400             main:
0009   0400 FD 49 E0 FF   mov bp, $FFE0 ;
0010   0404 FD 47 E0 FF   mov sp, $FFE0 ; Make space for argc(2 bytes) and for 10 pointers in argv (local variables)
0011   0408             ; int i, j; 
0012   0408 52 02 00      sub sp, 2
0013   040B 52 02 00      sub sp, 2
0014   040E             ; int n; 
0015   040E 52 02 00      sub sp, 2
0016   0411             ; char *p = 0; 
0017   0411 52 01 00      sub sp, 1
0018   0414             ; --- START LOCAL VAR INITIALIZATION
0019   0414 FA FA FF      lea d, [bp + -6] ; $p
0020   0417 DA            push d
0021   0418 FD 2E 00 00   mov32 cb, $00000000
0021   041C 00 00 
0022   041E E7            pop d
0023   041F FD 3E         mov [d], bl
0024   0421             ; --- END LOCAL VAR INITIALIZATION
0025   0421             ; for(i = 0; i <  30      ; i++){ 
0026   0421             _for1_init:
0027   0421 FA FF FF      lea d, [bp + -1] ; $i
0028   0424 DA            push d
0029   0425 FD 2E 00 00   mov32 cb, $00000000
0029   0429 00 00 
0030   042B E7            pop d
0031   042C FD 43         mov [d], b
0032   042E             _for1_cond:
0033   042E FA FF FF      lea d, [bp + -1] ; $i
0034   0431 2A            mov b, [d]
0035   0432 38 00 00      mov c, 0
0036   0435             ; --- START RELATIONAL
0037   0435 D7            push a
0038   0436 11            mov a, b
0039   0437 FD 2E 1E 00   mov32 cb, $0000001e
0039   043B 00 00 
0040   043D B0            cmp a, b
0041   043E FD 73         slt ; < (signed)
0042   0440 E4            pop a
0043   0441             ; --- END RELATIONAL
0044   0441 C0 00 00      cmp b, 0
0045   0444 C6 2E 05      je _for1_exit
0046   0447             _for1_block:
0047   0447             ; for(j = 0; j <   40     ; j++){ 
0048   0447             _for2_init:
0049   0447 FA FD FF      lea d, [bp + -3] ; $j
0050   044A DA            push d
0051   044B FD 2E 00 00   mov32 cb, $00000000
0051   044F 00 00 
0052   0451 E7            pop d
0053   0452 FD 43         mov [d], b
0054   0454             _for2_cond:
0055   0454 FA FD FF      lea d, [bp + -3] ; $j
0056   0457 2A            mov b, [d]
0057   0458 38 00 00      mov c, 0
0058   045B             ; --- START RELATIONAL
0059   045B D7            push a
0060   045C 11            mov a, b
0061   045D FD 2E 28 00   mov32 cb, $00000028
0061   0461 00 00 
0062   0463 B0            cmp a, b
0063   0464 FD 73         slt ; < (signed)
0064   0466 E4            pop a
0065   0467             ; --- END RELATIONAL
0066   0467 C0 00 00      cmp b, 0
0067   046A C6 1B 05      je _for2_exit
0068   046D             _for2_block:
0069   046D             ; if(*p % 2 == 0) currState[i][j] = '@'; 
0070   046D             _if3_cond:
0071   046D FA FA FF      lea d, [bp + -6] ; $p
0072   0470 32            mov bl, [d]
0073   0471 A7 00         mov bh, 0
0074   0473 38 00 00      mov c, 0
0075   0476 74            mov d, b
0076   0477 32            mov bl, [d]
0077   0478 A7 00         mov bh, 0
0078   047A 38 00 00      mov c, 0
0079   047D             ; --- START FACTORS
0080   047D D7            push a
0081   047E FD D8         push g
0082   0480 11            mov a, b
0083   0481 FD 7A         mov g, c
0084   0483 FD 2E 02 00   mov32 cb, $00000002
0084   0487 00 00 
0085   0489 FD D8         push g ; save 'g' as the div instruction uses it
0086   048B AE            div a, b ; %, a: quotient, b: remainder
0087   048C 11            mov a, b
0088   048D FD F1         pop g
0089   048F FD 38         mov c, g
0090   0491 27            mov b, a
0091   0492 FD F1         pop g
0092   0494 E4            pop a
0093   0495             ; --- END FACTORS
0094   0495             ; --- START RELATIONAL
0095   0495 D7            push a
0096   0496 11            mov a, b
0097   0497 FD 2E 00 00   mov32 cb, $00000000
0097   049B 00 00 
0098   049D B0            cmp a, b
0099   049E FD 71         seq ; ==
0100   04A0 E4            pop a
0101   04A1             ; --- END RELATIONAL
0102   04A1 C0 00 00      cmp b, 0
0103   04A4 C6 D0 04      je _if3_else
0104   04A7             _if3_TRUE:
0105   04A7             ; currState[i][j] = '@'; 
0106   04A7 3B A8 19      mov d, _currState_data ; $currState
0107   04AA D7            push a
0108   04AB DA            push d
0109   04AC FA FF FF      lea d, [bp + -1] ; $i
0110   04AF 2A            mov b, [d]
0111   04B0 38 00 00      mov c, 0
0112   04B3 E7            pop d
0113   04B4 FD 13 28 00   mma 40 ; mov a, 40; mul a, b; add d, b
0114   04B8 DA            push d
0115   04B9 FA FD FF      lea d, [bp + -3] ; $j
0116   04BC 2A            mov b, [d]
0117   04BD 38 00 00      mov c, 0
0118   04C0 E7            pop d
0119   04C1 5A            add d, b
0120   04C2 E4            pop a
0121   04C3 DA            push d
0122   04C4 FD 2E 40 00   mov32 cb, $00000040
0122   04C8 00 00 
0123   04CA E7            pop d
0124   04CB FD 3E         mov [d], bl
0125   04CD 0A F6 04      jmp _if3_exit
0126   04D0             _if3_else:
0127   04D0             ; currState[i][j] = ' '; 
0128   04D0 3B A8 19      mov d, _currState_data ; $currState
0129   04D3 D7            push a
0130   04D4 DA            push d
0131   04D5 FA FF FF      lea d, [bp + -1] ; $i
0132   04D8 2A            mov b, [d]
0133   04D9 38 00 00      mov c, 0
0134   04DC E7            pop d
0135   04DD FD 13 28 00   mma 40 ; mov a, 40; mul a, b; add d, b
0136   04E1 DA            push d
0137   04E2 FA FD FF      lea d, [bp + -3] ; $j
0138   04E5 2A            mov b, [d]
0139   04E6 38 00 00      mov c, 0
0140   04E9 E7            pop d
0141   04EA 5A            add d, b
0142   04EB E4            pop a
0143   04EC DA            push d
0144   04ED FD 2E 20 00   mov32 cb, $00000020
0144   04F1 00 00 
0145   04F3 E7            pop d
0146   04F4 FD 3E         mov [d], bl
0147   04F6             _if3_exit:
0148   04F6             ; p++;		 
0149   04F6 FA FA FF      lea d, [bp + -6] ; $p
0150   04F9 32            mov bl, [d]
0151   04FA A7 00         mov bh, 0
0152   04FC 38 00 00      mov c, 0
0153   04FF FD 77         inc b
0154   0501 FA FA FF      lea d, [bp + -6] ; $p
0155   0504 FD 3E         mov [d], bl
0156   0506 FD 7D         dec b
0157   0508             _for2_update:
0158   0508 FA FD FF      lea d, [bp + -3] ; $j
0159   050B 2A            mov b, [d]
0160   050C 38 00 00      mov c, 0
0161   050F 11            mov a, b
0162   0510 FD 77         inc b
0163   0512 FA FD FF      lea d, [bp + -3] ; $j
0164   0515 FD 43         mov [d], b
0165   0517 27            mov b, a
0166   0518 0A 54 04      jmp _for2_cond
0167   051B             _for2_exit:
0168   051B             _for1_update:
0169   051B FA FF FF      lea d, [bp + -1] ; $i
0170   051E 2A            mov b, [d]
0171   051F 38 00 00      mov c, 0
0172   0522 11            mov a, b
0173   0523 FD 77         inc b
0174   0525 FA FF FF      lea d, [bp + -1] ; $i
0175   0528 FD 43         mov [d], b
0176   052A 27            mov b, a
0177   052B 0A 2E 04      jmp _for1_cond
0178   052E             _for1_exit:
0179   052E             ; for(i = 0; i <  30      ; i++){ 
0180   052E             _for6_init:
0181   052E FA FF FF      lea d, [bp + -1] ; $i
0182   0531 DA            push d
0183   0532 FD 2E 00 00   mov32 cb, $00000000
0183   0536 00 00 
0184   0538 E7            pop d
0185   0539 FD 43         mov [d], b
0186   053B             _for6_cond:
0187   053B FA FF FF      lea d, [bp + -1] ; $i
0188   053E 2A            mov b, [d]
0189   053F 38 00 00      mov c, 0
0190   0542             ; --- START RELATIONAL
0191   0542 D7            push a
0192   0543 11            mov a, b
0193   0544 FD 2E 1E 00   mov32 cb, $0000001e
0193   0548 00 00 
0194   054A B0            cmp a, b
0195   054B FD 73         slt ; < (signed)
0196   054D E4            pop a
0197   054E             ; --- END RELATIONAL
0198   054E C0 00 00      cmp b, 0
0199   0551 C6 E2 05      je _for6_exit
0200   0554             _for6_block:
0201   0554             ; for(j = 0; j <   40     ; j++){ 
0202   0554             _for7_init:
0203   0554 FA FD FF      lea d, [bp + -3] ; $j
0204   0557 DA            push d
0205   0558 FD 2E 00 00   mov32 cb, $00000000
0205   055C 00 00 
0206   055E E7            pop d
0207   055F FD 43         mov [d], b
0208   0561             _for7_cond:
0209   0561 FA FD FF      lea d, [bp + -3] ; $j
0210   0564 2A            mov b, [d]
0211   0565 38 00 00      mov c, 0
0212   0568             ; --- START RELATIONAL
0213   0568 D7            push a
0214   0569 11            mov a, b
0215   056A FD 2E 28 00   mov32 cb, $00000028
0215   056E 00 00 
0216   0570 B0            cmp a, b
0217   0571 FD 73         slt ; < (signed)
0218   0573 E4            pop a
0219   0574             ; --- END RELATIONAL
0220   0574 C0 00 00      cmp b, 0
0221   0577 C6 CF 05      je _for7_exit
0222   057A             _for7_block:
0223   057A             ; nextState[i][j] = currState[i][j]; 
0224   057A 3B F8 14      mov d, _nextState_data ; $nextState
0225   057D D7            push a
0226   057E DA            push d
0227   057F FA FF FF      lea d, [bp + -1] ; $i
0228   0582 2A            mov b, [d]
0229   0583 38 00 00      mov c, 0
0230   0586 E7            pop d
0231   0587 FD 13 28 00   mma 40 ; mov a, 40; mul a, b; add d, b
0232   058B DA            push d
0233   058C FA FD FF      lea d, [bp + -3] ; $j
0234   058F 2A            mov b, [d]
0235   0590 38 00 00      mov c, 0
0236   0593 E7            pop d
0237   0594 5A            add d, b
0238   0595 E4            pop a
0239   0596 DA            push d
0240   0597 3B A8 19      mov d, _currState_data ; $currState
0241   059A D7            push a
0242   059B DA            push d
0243   059C FA FF FF      lea d, [bp + -1] ; $i
0244   059F 2A            mov b, [d]
0245   05A0 38 00 00      mov c, 0
0246   05A3 E7            pop d
0247   05A4 FD 13 28 00   mma 40 ; mov a, 40; mul a, b; add d, b
0248   05A8 DA            push d
0249   05A9 FA FD FF      lea d, [bp + -3] ; $j
0250   05AC 2A            mov b, [d]
0251   05AD 38 00 00      mov c, 0
0252   05B0 E7            pop d
0253   05B1 5A            add d, b
0254   05B2 E4            pop a
0255   05B3 32            mov bl, [d]
0256   05B4 A7 00         mov bh, 0
0257   05B6 38 00 00      mov c, 0
0258   05B9 E7            pop d
0259   05BA FD 3E         mov [d], bl
0260   05BC             _for7_update:
0261   05BC FA FD FF      lea d, [bp + -3] ; $j
0262   05BF 2A            mov b, [d]
0263   05C0 38 00 00      mov c, 0
0264   05C3 11            mov a, b
0265   05C4 FD 77         inc b
0266   05C6 FA FD FF      lea d, [bp + -3] ; $j
0267   05C9 FD 43         mov [d], b
0268   05CB 27            mov b, a
0269   05CC 0A 61 05      jmp _for7_cond
0270   05CF             _for7_exit:
0271   05CF             _for6_update:
0272   05CF FA FF FF      lea d, [bp + -1] ; $i
0273   05D2 2A            mov b, [d]
0274   05D3 38 00 00      mov c, 0
0275   05D6 11            mov a, b
0276   05D7 FD 77         inc b
0277   05D9 FA FF FF      lea d, [bp + -1] ; $i
0278   05DC FD 43         mov [d], b
0279   05DE 27            mov b, a
0280   05DF 0A 3B 05      jmp _for6_cond
0281   05E2             _for6_exit:
0282   05E2             ; for(;;){ 
0283   05E2             _for8_init:
0284   05E2             _for8_cond:
0285   05E2             _for8_block:
0286   05E2             ; for(i = 1; i <  30      +-1; i++){ 
0287   05E2             _for9_init:
0288   05E2 FA FF FF      lea d, [bp + -1] ; $i
0289   05E5 DA            push d
0290   05E6 FD 2E 01 00   mov32 cb, $00000001
0290   05EA 00 00 
0291   05EC E7            pop d
0292   05ED FD 43         mov [d], b
0293   05EF             _for9_cond:
0294   05EF FA FF FF      lea d, [bp + -1] ; $i
0295   05F2 2A            mov b, [d]
0296   05F3 38 00 00      mov c, 0
0297   05F6             ; --- START RELATIONAL
0298   05F6 D7            push a
0299   05F7 11            mov a, b
0300   05F8 FD 2E 1E 00   mov32 cb, $0000001e
0300   05FC 00 00 
0301   05FE             ; --- START TERMS
0302   05FE D7            push a
0303   05FF 11            mov a, b
0304   0600 FD 2E FF FF   mov32 cb, $ffffffff
0304   0604 FF FF 
0305   0606 56            add b, a
0306   0607 E4            pop a
0307   0608             ; --- END TERMS
0308   0608 B0            cmp a, b
0309   0609 FD 73         slt ; < (signed)
0310   060B E4            pop a
0311   060C             ; --- END RELATIONAL
0312   060C C0 00 00      cmp b, 0
0313   060F C6 C1 09      je _for9_exit
0314   0612             _for9_block:
0315   0612             ; for(j = 1; j <   40     +-1; j++){ 
0316   0612             _for10_init:
0317   0612 FA FD FF      lea d, [bp + -3] ; $j
0318   0615 DA            push d
0319   0616 FD 2E 01 00   mov32 cb, $00000001
0319   061A 00 00 
0320   061C E7            pop d
0321   061D FD 43         mov [d], b
0322   061F             _for10_cond:
0323   061F FA FD FF      lea d, [bp + -3] ; $j
0324   0622 2A            mov b, [d]
0325   0623 38 00 00      mov c, 0
0326   0626             ; --- START RELATIONAL
0327   0626 D7            push a
0328   0627 11            mov a, b
0329   0628 FD 2E 28 00   mov32 cb, $00000028
0329   062C 00 00 
0330   062E             ; --- START TERMS
0331   062E D7            push a
0332   062F 11            mov a, b
0333   0630 FD 2E FF FF   mov32 cb, $ffffffff
0333   0634 FF FF 
0334   0636 56            add b, a
0335   0637 E4            pop a
0336   0638             ; --- END TERMS
0337   0638 B0            cmp a, b
0338   0639 FD 73         slt ; < (signed)
0339   063B E4            pop a
0340   063C             ; --- END RELATIONAL
0341   063C C0 00 00      cmp b, 0
0342   063F C6 AE 09      je _for10_exit
0343   0642             _for10_block:
0344   0642             ; n = 0; 
0345   0642 FA FB FF      lea d, [bp + -5] ; $n
0346   0645 DA            push d
0347   0646 FD 2E 00 00   mov32 cb, $00000000
0347   064A 00 00 
0348   064C E7            pop d
0349   064D FD 43         mov [d], b
0350   064F             ; if(currState[i+-1][j] == '@')			n++; 
0351   064F             _if11_cond:
0352   064F 3B A8 19      mov d, _currState_data ; $currState
0353   0652 D7            push a
0354   0653 DA            push d
0355   0654 FA FF FF      lea d, [bp + -1] ; $i
0356   0657 2A            mov b, [d]
0357   0658 38 00 00      mov c, 0
0358   065B             ; --- START TERMS
0359   065B D7            push a
0360   065C 11            mov a, b
0361   065D FD 2E FF FF   mov32 cb, $ffffffff
0361   0661 FF FF 
0362   0663 56            add b, a
0363   0664 E4            pop a
0364   0665             ; --- END TERMS
0365   0665 E7            pop d
0366   0666 FD 13 28 00   mma 40 ; mov a, 40; mul a, b; add d, b
0367   066A DA            push d
0368   066B FA FD FF      lea d, [bp + -3] ; $j
0369   066E 2A            mov b, [d]
0370   066F 38 00 00      mov c, 0
0371   0672 E7            pop d
0372   0673 5A            add d, b
0373   0674 E4            pop a
0374   0675 32            mov bl, [d]
0375   0676 A7 00         mov bh, 0
0376   0678 38 00 00      mov c, 0
0377   067B             ; --- START RELATIONAL
0378   067B D7            push a
0379   067C 11            mov a, b
0380   067D FD 2E 40 00   mov32 cb, $00000040
0380   0681 00 00 
0381   0683 B0            cmp a, b
0382   0684 FD 71         seq ; ==
0383   0686 E4            pop a
0384   0687             ; --- END RELATIONAL
0385   0687 C0 00 00      cmp b, 0
0386   068A C6 A0 06      je _if11_exit
0387   068D             _if11_TRUE:
0388   068D             ; n++; 
0389   068D FA FB FF      lea d, [bp + -5] ; $n
0390   0690 2A            mov b, [d]
0391   0691 38 00 00      mov c, 0
0392   0694 11            mov a, b
0393   0695 FD 77         inc b
0394   0697 FA FB FF      lea d, [bp + -5] ; $n
0395   069A FD 43         mov [d], b
0396   069C 27            mov b, a
0397   069D 0A A0 06      jmp _if11_exit
0398   06A0             _if11_exit:
0399   06A0             ; if(currState[i+-1][j+-1] == '@') 	n++; 
0400   06A0             _if12_cond:
0401   06A0 3B A8 19      mov d, _currState_data ; $currState
0402   06A3 D7            push a
0403   06A4 DA            push d
0404   06A5 FA FF FF      lea d, [bp + -1] ; $i
0405   06A8 2A            mov b, [d]
0406   06A9 38 00 00      mov c, 0
0407   06AC             ; --- START TERMS
0408   06AC D7            push a
0409   06AD 11            mov a, b
0410   06AE FD 2E FF FF   mov32 cb, $ffffffff
0410   06B2 FF FF 
0411   06B4 56            add b, a
0412   06B5 E4            pop a
0413   06B6             ; --- END TERMS
0414   06B6 E7            pop d
0415   06B7 FD 13 28 00   mma 40 ; mov a, 40; mul a, b; add d, b
0416   06BB DA            push d
0417   06BC FA FD FF      lea d, [bp + -3] ; $j
0418   06BF 2A            mov b, [d]
0419   06C0 38 00 00      mov c, 0
0420   06C3             ; --- START TERMS
0421   06C3 D7            push a
0422   06C4 11            mov a, b
0423   06C5 FD 2E FF FF   mov32 cb, $ffffffff
0423   06C9 FF FF 
0424   06CB 56            add b, a
0425   06CC E4            pop a
0426   06CD             ; --- END TERMS
0427   06CD E7            pop d
0428   06CE 5A            add d, b
0429   06CF E4            pop a
0430   06D0 32            mov bl, [d]
0431   06D1 A7 00         mov bh, 0
0432   06D3 38 00 00      mov c, 0
0433   06D6             ; --- START RELATIONAL
0434   06D6 D7            push a
0435   06D7 11            mov a, b
0436   06D8 FD 2E 40 00   mov32 cb, $00000040
0436   06DC 00 00 
0437   06DE B0            cmp a, b
0438   06DF FD 71         seq ; ==
0439   06E1 E4            pop a
0440   06E2             ; --- END RELATIONAL
0441   06E2 C0 00 00      cmp b, 0
0442   06E5 C6 FB 06      je _if12_exit
0443   06E8             _if12_TRUE:
0444   06E8             ; n++; 
0445   06E8 FA FB FF      lea d, [bp + -5] ; $n
0446   06EB 2A            mov b, [d]
0447   06EC 38 00 00      mov c, 0
0448   06EF 11            mov a, b
0449   06F0 FD 77         inc b
0450   06F2 FA FB FF      lea d, [bp + -5] ; $n
0451   06F5 FD 43         mov [d], b
0452   06F7 27            mov b, a
0453   06F8 0A FB 06      jmp _if12_exit
0454   06FB             _if12_exit:
0455   06FB             ; if(currState[i+-1][j+1] == '@') 	n++; 
0456   06FB             _if13_cond:
0457   06FB 3B A8 19      mov d, _currState_data ; $currState
0458   06FE D7            push a
0459   06FF DA            push d
0460   0700 FA FF FF      lea d, [bp + -1] ; $i
0461   0703 2A            mov b, [d]
0462   0704 38 00 00      mov c, 0
0463   0707             ; --- START TERMS
0464   0707 D7            push a
0465   0708 11            mov a, b
0466   0709 FD 2E FF FF   mov32 cb, $ffffffff
0466   070D FF FF 
0467   070F 56            add b, a
0468   0710 E4            pop a
0469   0711             ; --- END TERMS
0470   0711 E7            pop d
0471   0712 FD 13 28 00   mma 40 ; mov a, 40; mul a, b; add d, b
0472   0716 DA            push d
0473   0717 FA FD FF      lea d, [bp + -3] ; $j
0474   071A 2A            mov b, [d]
0475   071B 38 00 00      mov c, 0
0476   071E             ; --- START TERMS
0477   071E D7            push a
0478   071F 11            mov a, b
0479   0720 FD 2E 01 00   mov32 cb, $00000001
0479   0724 00 00 
0480   0726 56            add b, a
0481   0727 E4            pop a
0482   0728             ; --- END TERMS
0483   0728 E7            pop d
0484   0729 5A            add d, b
0485   072A E4            pop a
0486   072B 32            mov bl, [d]
0487   072C A7 00         mov bh, 0
0488   072E 38 00 00      mov c, 0
0489   0731             ; --- START RELATIONAL
0490   0731 D7            push a
0491   0732 11            mov a, b
0492   0733 FD 2E 40 00   mov32 cb, $00000040
0492   0737 00 00 
0493   0739 B0            cmp a, b
0494   073A FD 71         seq ; ==
0495   073C E4            pop a
0496   073D             ; --- END RELATIONAL
0497   073D C0 00 00      cmp b, 0
0498   0740 C6 56 07      je _if13_exit
0499   0743             _if13_TRUE:
0500   0743             ; n++; 
0501   0743 FA FB FF      lea d, [bp + -5] ; $n
0502   0746 2A            mov b, [d]
0503   0747 38 00 00      mov c, 0
0504   074A 11            mov a, b
0505   074B FD 77         inc b
0506   074D FA FB FF      lea d, [bp + -5] ; $n
0507   0750 FD 43         mov [d], b
0508   0752 27            mov b, a
0509   0753 0A 56 07      jmp _if13_exit
0510   0756             _if13_exit:
0511   0756             ; if(currState[i][j+-1] == '@') 		n++; 
0512   0756             _if14_cond:
0513   0756 3B A8 19      mov d, _currState_data ; $currState
0514   0759 D7            push a
0515   075A DA            push d
0516   075B FA FF FF      lea d, [bp + -1] ; $i
0517   075E 2A            mov b, [d]
0518   075F 38 00 00      mov c, 0
0519   0762 E7            pop d
0520   0763 FD 13 28 00   mma 40 ; mov a, 40; mul a, b; add d, b
0521   0767 DA            push d
0522   0768 FA FD FF      lea d, [bp + -3] ; $j
0523   076B 2A            mov b, [d]
0524   076C 38 00 00      mov c, 0
0525   076F             ; --- START TERMS
0526   076F D7            push a
0527   0770 11            mov a, b
0528   0771 FD 2E FF FF   mov32 cb, $ffffffff
0528   0775 FF FF 
0529   0777 56            add b, a
0530   0778 E4            pop a
0531   0779             ; --- END TERMS
0532   0779 E7            pop d
0533   077A 5A            add d, b
0534   077B E4            pop a
0535   077C 32            mov bl, [d]
0536   077D A7 00         mov bh, 0
0537   077F 38 00 00      mov c, 0
0538   0782             ; --- START RELATIONAL
0539   0782 D7            push a
0540   0783 11            mov a, b
0541   0784 FD 2E 40 00   mov32 cb, $00000040
0541   0788 00 00 
0542   078A B0            cmp a, b
0543   078B FD 71         seq ; ==
0544   078D E4            pop a
0545   078E             ; --- END RELATIONAL
0546   078E C0 00 00      cmp b, 0
0547   0791 C6 A7 07      je _if14_exit
0548   0794             _if14_TRUE:
0549   0794             ; n++; 
0550   0794 FA FB FF      lea d, [bp + -5] ; $n
0551   0797 2A            mov b, [d]
0552   0798 38 00 00      mov c, 0
0553   079B 11            mov a, b
0554   079C FD 77         inc b
0555   079E FA FB FF      lea d, [bp + -5] ; $n
0556   07A1 FD 43         mov [d], b
0557   07A3 27            mov b, a
0558   07A4 0A A7 07      jmp _if14_exit
0559   07A7             _if14_exit:
0560   07A7             ; if(currState[i][j+1] == '@') 			n++; 
0561   07A7             _if15_cond:
0562   07A7 3B A8 19      mov d, _currState_data ; $currState
0563   07AA D7            push a
0564   07AB DA            push d
0565   07AC FA FF FF      lea d, [bp + -1] ; $i
0566   07AF 2A            mov b, [d]
0567   07B0 38 00 00      mov c, 0
0568   07B3 E7            pop d
0569   07B4 FD 13 28 00   mma 40 ; mov a, 40; mul a, b; add d, b
0570   07B8 DA            push d
0571   07B9 FA FD FF      lea d, [bp + -3] ; $j
0572   07BC 2A            mov b, [d]
0573   07BD 38 00 00      mov c, 0
0574   07C0             ; --- START TERMS
0575   07C0 D7            push a
0576   07C1 11            mov a, b
0577   07C2 FD 2E 01 00   mov32 cb, $00000001
0577   07C6 00 00 
0578   07C8 56            add b, a
0579   07C9 E4            pop a
0580   07CA             ; --- END TERMS
0581   07CA E7            pop d
0582   07CB 5A            add d, b
0583   07CC E4            pop a
0584   07CD 32            mov bl, [d]
0585   07CE A7 00         mov bh, 0
0586   07D0 38 00 00      mov c, 0
0587   07D3             ; --- START RELATIONAL
0588   07D3 D7            push a
0589   07D4 11            mov a, b
0590   07D5 FD 2E 40 00   mov32 cb, $00000040
0590   07D9 00 00 
0591   07DB B0            cmp a, b
0592   07DC FD 71         seq ; ==
0593   07DE E4            pop a
0594   07DF             ; --- END RELATIONAL
0595   07DF C0 00 00      cmp b, 0
0596   07E2 C6 F8 07      je _if15_exit
0597   07E5             _if15_TRUE:
0598   07E5             ; n++; 
0599   07E5 FA FB FF      lea d, [bp + -5] ; $n
0600   07E8 2A            mov b, [d]
0601   07E9 38 00 00      mov c, 0
0602   07EC 11            mov a, b
0603   07ED FD 77         inc b
0604   07EF FA FB FF      lea d, [bp + -5] ; $n
0605   07F2 FD 43         mov [d], b
0606   07F4 27            mov b, a
0607   07F5 0A F8 07      jmp _if15_exit
0608   07F8             _if15_exit:
0609   07F8             ; if(currState[i+1][j+-1] == '@') 	n++; 
0610   07F8             _if16_cond:
0611   07F8 3B A8 19      mov d, _currState_data ; $currState
0612   07FB D7            push a
0613   07FC DA            push d
0614   07FD FA FF FF      lea d, [bp + -1] ; $i
0615   0800 2A            mov b, [d]
0616   0801 38 00 00      mov c, 0
0617   0804             ; --- START TERMS
0618   0804 D7            push a
0619   0805 11            mov a, b
0620   0806 FD 2E 01 00   mov32 cb, $00000001
0620   080A 00 00 
0621   080C 56            add b, a
0622   080D E4            pop a
0623   080E             ; --- END TERMS
0624   080E E7            pop d
0625   080F FD 13 28 00   mma 40 ; mov a, 40; mul a, b; add d, b
0626   0813 DA            push d
0627   0814 FA FD FF      lea d, [bp + -3] ; $j
0628   0817 2A            mov b, [d]
0629   0818 38 00 00      mov c, 0
0630   081B             ; --- START TERMS
0631   081B D7            push a
0632   081C 11            mov a, b
0633   081D FD 2E FF FF   mov32 cb, $ffffffff
0633   0821 FF FF 
0634   0823 56            add b, a
0635   0824 E4            pop a
0636   0825             ; --- END TERMS
0637   0825 E7            pop d
0638   0826 5A            add d, b
0639   0827 E4            pop a
0640   0828 32            mov bl, [d]
0641   0829 A7 00         mov bh, 0
0642   082B 38 00 00      mov c, 0
0643   082E             ; --- START RELATIONAL
0644   082E D7            push a
0645   082F 11            mov a, b
0646   0830 FD 2E 40 00   mov32 cb, $00000040
0646   0834 00 00 
0647   0836 B0            cmp a, b
0648   0837 FD 71         seq ; ==
0649   0839 E4            pop a
0650   083A             ; --- END RELATIONAL
0651   083A C0 00 00      cmp b, 0
0652   083D C6 53 08      je _if16_exit
0653   0840             _if16_TRUE:
0654   0840             ; n++; 
0655   0840 FA FB FF      lea d, [bp + -5] ; $n
0656   0843 2A            mov b, [d]
0657   0844 38 00 00      mov c, 0
0658   0847 11            mov a, b
0659   0848 FD 77         inc b
0660   084A FA FB FF      lea d, [bp + -5] ; $n
0661   084D FD 43         mov [d], b
0662   084F 27            mov b, a
0663   0850 0A 53 08      jmp _if16_exit
0664   0853             _if16_exit:
0665   0853             ; if(currState[i+1][j] == '@') 			n++; 
0666   0853             _if17_cond:
0667   0853 3B A8 19      mov d, _currState_data ; $currState
0668   0856 D7            push a
0669   0857 DA            push d
0670   0858 FA FF FF      lea d, [bp + -1] ; $i
0671   085B 2A            mov b, [d]
0672   085C 38 00 00      mov c, 0
0673   085F             ; --- START TERMS
0674   085F D7            push a
0675   0860 11            mov a, b
0676   0861 FD 2E 01 00   mov32 cb, $00000001
0676   0865 00 00 
0677   0867 56            add b, a
0678   0868 E4            pop a
0679   0869             ; --- END TERMS
0680   0869 E7            pop d
0681   086A FD 13 28 00   mma 40 ; mov a, 40; mul a, b; add d, b
0682   086E DA            push d
0683   086F FA FD FF      lea d, [bp + -3] ; $j
0684   0872 2A            mov b, [d]
0685   0873 38 00 00      mov c, 0
0686   0876 E7            pop d
0687   0877 5A            add d, b
0688   0878 E4            pop a
0689   0879 32            mov bl, [d]
0690   087A A7 00         mov bh, 0
0691   087C 38 00 00      mov c, 0
0692   087F             ; --- START RELATIONAL
0693   087F D7            push a
0694   0880 11            mov a, b
0695   0881 FD 2E 40 00   mov32 cb, $00000040
0695   0885 00 00 
0696   0887 B0            cmp a, b
0697   0888 FD 71         seq ; ==
0698   088A E4            pop a
0699   088B             ; --- END RELATIONAL
0700   088B C0 00 00      cmp b, 0
0701   088E C6 A4 08      je _if17_exit
0702   0891             _if17_TRUE:
0703   0891             ; n++; 
0704   0891 FA FB FF      lea d, [bp + -5] ; $n
0705   0894 2A            mov b, [d]
0706   0895 38 00 00      mov c, 0
0707   0898 11            mov a, b
0708   0899 FD 77         inc b
0709   089B FA FB FF      lea d, [bp + -5] ; $n
0710   089E FD 43         mov [d], b
0711   08A0 27            mov b, a
0712   08A1 0A A4 08      jmp _if17_exit
0713   08A4             _if17_exit:
0714   08A4             ; if(currState[i+1][j+1] == '@') 		n++; 
0715   08A4             _if18_cond:
0716   08A4 3B A8 19      mov d, _currState_data ; $currState
0717   08A7 D7            push a
0718   08A8 DA            push d
0719   08A9 FA FF FF      lea d, [bp + -1] ; $i
0720   08AC 2A            mov b, [d]
0721   08AD 38 00 00      mov c, 0
0722   08B0             ; --- START TERMS
0723   08B0 D7            push a
0724   08B1 11            mov a, b
0725   08B2 FD 2E 01 00   mov32 cb, $00000001
0725   08B6 00 00 
0726   08B8 56            add b, a
0727   08B9 E4            pop a
0728   08BA             ; --- END TERMS
0729   08BA E7            pop d
0730   08BB FD 13 28 00   mma 40 ; mov a, 40; mul a, b; add d, b
0731   08BF DA            push d
0732   08C0 FA FD FF      lea d, [bp + -3] ; $j
0733   08C3 2A            mov b, [d]
0734   08C4 38 00 00      mov c, 0
0735   08C7             ; --- START TERMS
0736   08C7 D7            push a
0737   08C8 11            mov a, b
0738   08C9 FD 2E 01 00   mov32 cb, $00000001
0738   08CD 00 00 
0739   08CF 56            add b, a
0740   08D0 E4            pop a
0741   08D1             ; --- END TERMS
0742   08D1 E7            pop d
0743   08D2 5A            add d, b
0744   08D3 E4            pop a
0745   08D4 32            mov bl, [d]
0746   08D5 A7 00         mov bh, 0
0747   08D7 38 00 00      mov c, 0
0748   08DA             ; --- START RELATIONAL
0749   08DA D7            push a
0750   08DB 11            mov a, b
0751   08DC FD 2E 40 00   mov32 cb, $00000040
0751   08E0 00 00 
0752   08E2 B0            cmp a, b
0753   08E3 FD 71         seq ; ==
0754   08E5 E4            pop a
0755   08E6             ; --- END RELATIONAL
0756   08E6 C0 00 00      cmp b, 0
0757   08E9 C6 FF 08      je _if18_exit
0758   08EC             _if18_TRUE:
0759   08EC             ; n++; 
0760   08EC FA FB FF      lea d, [bp + -5] ; $n
0761   08EF 2A            mov b, [d]
0762   08F0 38 00 00      mov c, 0
0763   08F3 11            mov a, b
0764   08F4 FD 77         inc b
0765   08F6 FA FB FF      lea d, [bp + -5] ; $n
0766   08F9 FD 43         mov [d], b
0767   08FB 27            mov b, a
0768   08FC 0A FF 08      jmp _if18_exit
0769   08FF             _if18_exit:
0770   08FF             ; if(n < 2 || n > 3) nextState[i][j] = ' '; 
0771   08FF             _if19_cond:
0772   08FF FA FB FF      lea d, [bp + -5] ; $n
0773   0902 2A            mov b, [d]
0774   0903 38 00 00      mov c, 0
0775   0906             ; --- START RELATIONAL
0776   0906 D7            push a
0777   0907 11            mov a, b
0778   0908 FD 2E 02 00   mov32 cb, $00000002
0778   090C 00 00 
0779   090E B0            cmp a, b
0780   090F FD 73         slt ; < (signed)
0781   0911 E4            pop a
0782   0912             ; --- END RELATIONAL
0783   0912             ; --- START LOGICAL OR
0784   0912 D7            push a
0785   0913 11            mov a, b
0786   0914 FA FB FF      lea d, [bp + -5] ; $n
0787   0917 2A            mov b, [d]
0788   0918 38 00 00      mov c, 0
0789   091B             ; --- START RELATIONAL
0790   091B D7            push a
0791   091C 11            mov a, b
0792   091D FD 2E 03 00   mov32 cb, $00000003
0792   0921 00 00 
0793   0923 B0            cmp a, b
0794   0924 FD 7F         sgt ; >
0795   0926 E4            pop a
0796   0927             ; --- END RELATIONAL
0797   0927 FD A8         sor a, b ; ||
0798   0929 E4            pop a
0799   092A             ; --- END LOGICAL OR
0800   092A C0 00 00      cmp b, 0
0801   092D C6 59 09      je _if19_else
0802   0930             _if19_TRUE:
0803   0930             ; nextState[i][j] = ' '; 
0804   0930 3B F8 14      mov d, _nextState_data ; $nextState
0805   0933 D7            push a
0806   0934 DA            push d
0807   0935 FA FF FF      lea d, [bp + -1] ; $i
0808   0938 2A            mov b, [d]
0809   0939 38 00 00      mov c, 0
0810   093C E7            pop d
0811   093D FD 13 28 00   mma 40 ; mov a, 40; mul a, b; add d, b
0812   0941 DA            push d
0813   0942 FA FD FF      lea d, [bp + -3] ; $j
0814   0945 2A            mov b, [d]
0815   0946 38 00 00      mov c, 0
0816   0949 E7            pop d
0817   094A 5A            add d, b
0818   094B E4            pop a
0819   094C DA            push d
0820   094D FD 2E 20 00   mov32 cb, $00000020
0820   0951 00 00 
0821   0953 E7            pop d
0822   0954 FD 3E         mov [d], bl
0823   0956 0A 9B 09      jmp _if19_exit
0824   0959             _if19_else:
0825   0959             ; if(n == 3) nextState[i][j] = '@'; 
0826   0959             _if20_cond:
0827   0959 FA FB FF      lea d, [bp + -5] ; $n
0828   095C 2A            mov b, [d]
0829   095D 38 00 00      mov c, 0
0830   0960             ; --- START RELATIONAL
0831   0960 D7            push a
0832   0961 11            mov a, b
0833   0962 FD 2E 03 00   mov32 cb, $00000003
0833   0966 00 00 
0834   0968 B0            cmp a, b
0835   0969 FD 71         seq ; ==
0836   096B E4            pop a
0837   096C             ; --- END RELATIONAL
0838   096C C0 00 00      cmp b, 0
0839   096F C6 9B 09      je _if20_exit
0840   0972             _if20_TRUE:
0841   0972             ; nextState[i][j] = '@'; 
0842   0972 3B F8 14      mov d, _nextState_data ; $nextState
0843   0975 D7            push a
0844   0976 DA            push d
0845   0977 FA FF FF      lea d, [bp + -1] ; $i
0846   097A 2A            mov b, [d]
0847   097B 38 00 00      mov c, 0
0848   097E E7            pop d
0849   097F FD 13 28 00   mma 40 ; mov a, 40; mul a, b; add d, b
0850   0983 DA            push d
0851   0984 FA FD FF      lea d, [bp + -3] ; $j
0852   0987 2A            mov b, [d]
0853   0988 38 00 00      mov c, 0
0854   098B E7            pop d
0855   098C 5A            add d, b
0856   098D E4            pop a
0857   098E DA            push d
0858   098F FD 2E 40 00   mov32 cb, $00000040
0858   0993 00 00 
0859   0995 E7            pop d
0860   0996 FD 3E         mov [d], bl
0861   0998 0A 9B 09      jmp _if20_exit
0862   099B             _if20_exit:
0863   099B             _if19_exit:
0864   099B             _for10_update:
0865   099B FA FD FF      lea d, [bp + -3] ; $j
0866   099E 2A            mov b, [d]
0867   099F 38 00 00      mov c, 0
0868   09A2 11            mov a, b
0869   09A3 FD 77         inc b
0870   09A5 FA FD FF      lea d, [bp + -3] ; $j
0871   09A8 FD 43         mov [d], b
0872   09AA 27            mov b, a
0873   09AB 0A 1F 06      jmp _for10_cond
0874   09AE             _for10_exit:
0875   09AE             _for9_update:
0876   09AE FA FF FF      lea d, [bp + -1] ; $i
0877   09B1 2A            mov b, [d]
0878   09B2 38 00 00      mov c, 0
0879   09B5 11            mov a, b
0880   09B6 FD 77         inc b
0881   09B8 FA FF FF      lea d, [bp + -1] ; $i
0882   09BB FD 43         mov [d], b
0883   09BD 27            mov b, a
0884   09BE 0A EF 05      jmp _for9_cond
0885   09C1             _for9_exit:
0886   09C1             ; for(i = 1; i <  30      +-1; i++){ 
0887   09C1             _for21_init:
0888   09C1 FA FF FF      lea d, [bp + -1] ; $i
0889   09C4 DA            push d
0890   09C5 FD 2E 01 00   mov32 cb, $00000001
0890   09C9 00 00 
0891   09CB E7            pop d
0892   09CC FD 43         mov [d], b
0893   09CE             _for21_cond:
0894   09CE FA FF FF      lea d, [bp + -1] ; $i
0895   09D1 2A            mov b, [d]
0896   09D2 38 00 00      mov c, 0
0897   09D5             ; --- START RELATIONAL
0898   09D5 D7            push a
0899   09D6 11            mov a, b
0900   09D7 FD 2E 1E 00   mov32 cb, $0000001e
0900   09DB 00 00 
0901   09DD             ; --- START TERMS
0902   09DD D7            push a
0903   09DE 11            mov a, b
0904   09DF FD 2E FF FF   mov32 cb, $ffffffff
0904   09E3 FF FF 
0905   09E5 56            add b, a
0906   09E6 E4            pop a
0907   09E7             ; --- END TERMS
0908   09E7 B0            cmp a, b
0909   09E8 FD 73         slt ; < (signed)
0910   09EA E4            pop a
0911   09EB             ; --- END RELATIONAL
0912   09EB C0 00 00      cmp b, 0
0913   09EE C6 89 0A      je _for21_exit
0914   09F1             _for21_block:
0915   09F1             ; for(j = 1; j <   40     +-1; j++){ 
0916   09F1             _for22_init:
0917   09F1 FA FD FF      lea d, [bp + -3] ; $j
0918   09F4 DA            push d
0919   09F5 FD 2E 01 00   mov32 cb, $00000001
0919   09F9 00 00 
0920   09FB E7            pop d
0921   09FC FD 43         mov [d], b
0922   09FE             _for22_cond:
0923   09FE FA FD FF      lea d, [bp + -3] ; $j
0924   0A01 2A            mov b, [d]
0925   0A02 38 00 00      mov c, 0
0926   0A05             ; --- START RELATIONAL
0927   0A05 D7            push a
0928   0A06 11            mov a, b
0929   0A07 FD 2E 28 00   mov32 cb, $00000028
0929   0A0B 00 00 
0930   0A0D             ; --- START TERMS
0931   0A0D D7            push a
0932   0A0E 11            mov a, b
0933   0A0F FD 2E FF FF   mov32 cb, $ffffffff
0933   0A13 FF FF 
0934   0A15 56            add b, a
0935   0A16 E4            pop a
0936   0A17             ; --- END TERMS
0937   0A17 B0            cmp a, b
0938   0A18 FD 73         slt ; < (signed)
0939   0A1A E4            pop a
0940   0A1B             ; --- END RELATIONAL
0941   0A1B C0 00 00      cmp b, 0
0942   0A1E C6 76 0A      je _for22_exit
0943   0A21             _for22_block:
0944   0A21             ; currState[i][j] = nextState[i][j]; 
0945   0A21 3B A8 19      mov d, _currState_data ; $currState
0946   0A24 D7            push a
0947   0A25 DA            push d
0948   0A26 FA FF FF      lea d, [bp + -1] ; $i
0949   0A29 2A            mov b, [d]
0950   0A2A 38 00 00      mov c, 0
0951   0A2D E7            pop d
0952   0A2E FD 13 28 00   mma 40 ; mov a, 40; mul a, b; add d, b
0953   0A32 DA            push d
0954   0A33 FA FD FF      lea d, [bp + -3] ; $j
0955   0A36 2A            mov b, [d]
0956   0A37 38 00 00      mov c, 0
0957   0A3A E7            pop d
0958   0A3B 5A            add d, b
0959   0A3C E4            pop a
0960   0A3D DA            push d
0961   0A3E 3B F8 14      mov d, _nextState_data ; $nextState
0962   0A41 D7            push a
0963   0A42 DA            push d
0964   0A43 FA FF FF      lea d, [bp + -1] ; $i
0965   0A46 2A            mov b, [d]
0966   0A47 38 00 00      mov c, 0
0967   0A4A E7            pop d
0968   0A4B FD 13 28 00   mma 40 ; mov a, 40; mul a, b; add d, b
0969   0A4F DA            push d
0970   0A50 FA FD FF      lea d, [bp + -3] ; $j
0971   0A53 2A            mov b, [d]
0972   0A54 38 00 00      mov c, 0
0973   0A57 E7            pop d
0974   0A58 5A            add d, b
0975   0A59 E4            pop a
0976   0A5A 32            mov bl, [d]
0977   0A5B A7 00         mov bh, 0
0978   0A5D 38 00 00      mov c, 0
0979   0A60 E7            pop d
0980   0A61 FD 3E         mov [d], bl
0981   0A63             _for22_update:
0982   0A63 FA FD FF      lea d, [bp + -3] ; $j
0983   0A66 2A            mov b, [d]
0984   0A67 38 00 00      mov c, 0
0985   0A6A 11            mov a, b
0986   0A6B FD 77         inc b
0987   0A6D FA FD FF      lea d, [bp + -3] ; $j
0988   0A70 FD 43         mov [d], b
0989   0A72 27            mov b, a
0990   0A73 0A FE 09      jmp _for22_cond
0991   0A76             _for22_exit:
0992   0A76             _for21_update:
0993   0A76 FA FF FF      lea d, [bp + -1] ; $i
0994   0A79 2A            mov b, [d]
0995   0A7A 38 00 00      mov c, 0
0996   0A7D 11            mov a, b
0997   0A7E FD 77         inc b
0998   0A80 FA FF FF      lea d, [bp + -1] ; $i
0999   0A83 FD 43         mov [d], b
1000   0A85 27            mov b, a
1001   0A86 0A CE 09      jmp _for21_cond
1002   0A89             _for21_exit:
1003   0A89             ; printf(clear); 
1004   0A89             ; --- START FUNCTION CALL
1005   0A89 3B ED 14      mov d, _clear_data ; $clear
1006   0A8C 2D            mov b, d
1007   0A8D 38 00 00      mov c, 0
1008   0A90 FD AB         swp b
1009   0A92 D8            push b
1010   0A93 07 77 0B      call printf
1011   0A96 51 02 00      add sp, 2
1012   0A99             ; --- END FUNCTION CALL
1013   0A99             ; for(i = 0; i <  30      ; i++){ 
1014   0A99             _for23_init:
1015   0A99 FA FF FF      lea d, [bp + -1] ; $i
1016   0A9C DA            push d
1017   0A9D FD 2E 00 00   mov32 cb, $00000000
1017   0AA1 00 00 
1018   0AA3 E7            pop d
1019   0AA4 FD 43         mov [d], b
1020   0AA6             _for23_cond:
1021   0AA6 FA FF FF      lea d, [bp + -1] ; $i
1022   0AA9 2A            mov b, [d]
1023   0AAA 38 00 00      mov c, 0
1024   0AAD             ; --- START RELATIONAL
1025   0AAD D7            push a
1026   0AAE 11            mov a, b
1027   0AAF FD 2E 1E 00   mov32 cb, $0000001e
1027   0AB3 00 00 
1028   0AB5 B0            cmp a, b
1029   0AB6 FD 73         slt ; < (signed)
1030   0AB8 E4            pop a
1031   0AB9             ; --- END RELATIONAL
1032   0AB9 C0 00 00      cmp b, 0
1033   0ABC C6 66 0B      je _for23_exit
1034   0ABF             _for23_block:
1035   0ABF             ; for(j = 0; j <   40     ; j++){ 
1036   0ABF             _for24_init:
1037   0ABF FA FD FF      lea d, [bp + -3] ; $j
1038   0AC2 DA            push d
1039   0AC3 FD 2E 00 00   mov32 cb, $00000000
1039   0AC7 00 00 
1040   0AC9 E7            pop d
1041   0ACA FD 43         mov [d], b
1042   0ACC             _for24_cond:
1043   0ACC FA FD FF      lea d, [bp + -3] ; $j
1044   0ACF 2A            mov b, [d]
1045   0AD0 38 00 00      mov c, 0
1046   0AD3             ; --- START RELATIONAL
1047   0AD3 D7            push a
1048   0AD4 11            mov a, b
1049   0AD5 FD 2E 28 00   mov32 cb, $00000028
1049   0AD9 00 00 
1050   0ADB B0            cmp a, b
1051   0ADC FD 73         slt ; < (signed)
1052   0ADE E4            pop a
1053   0ADF             ; --- END RELATIONAL
1054   0ADF C0 00 00      cmp b, 0
1055   0AE2 C6 47 0B      je _for24_exit
1056   0AE5             _for24_block:
1057   0AE5             ; currState[i][j] == '@' ? printf("@ ") : printf(". "); 
1058   0AE5             _ternary25_cond:
1059   0AE5 3B A8 19      mov d, _currState_data ; $currState
1060   0AE8 D7            push a
1061   0AE9 DA            push d
1062   0AEA FA FF FF      lea d, [bp + -1] ; $i
1063   0AED 2A            mov b, [d]
1064   0AEE 38 00 00      mov c, 0
1065   0AF1 E7            pop d
1066   0AF2 FD 13 28 00   mma 40 ; mov a, 40; mul a, b; add d, b
1067   0AF6 DA            push d
1068   0AF7 FA FD FF      lea d, [bp + -3] ; $j
1069   0AFA 2A            mov b, [d]
1070   0AFB 38 00 00      mov c, 0
1071   0AFE E7            pop d
1072   0AFF 5A            add d, b
1073   0B00 E4            pop a
1074   0B01 32            mov bl, [d]
1075   0B02 A7 00         mov bh, 0
1076   0B04 38 00 00      mov c, 0
1077   0B07             ; --- START RELATIONAL
1078   0B07 D7            push a
1079   0B08 11            mov a, b
1080   0B09 FD 2E 40 00   mov32 cb, $00000040
1080   0B0D 00 00 
1081   0B0F B0            cmp a, b
1082   0B10 FD 71         seq ; ==
1083   0B12 E4            pop a
1084   0B13             ; --- END RELATIONAL
1085   0B13 C0 00 00      cmp b, 0
1086   0B16 C6 28 0B      je _ternary25_FALSE
1087   0B19             _ternary25_TRUE:
1088   0B19             ; --- START FUNCTION CALL
1089   0B19 26 5C 1E      mov b, _s0 ; "@ "
1090   0B1C FD AB         swp b
1091   0B1E D8            push b
1092   0B1F 07 77 0B      call printf
1093   0B22 51 02 00      add sp, 2
1094   0B25             ; --- END FUNCTION CALL
1095   0B25 0A 34 0B      jmp _ternary25_exit
1096   0B28             _ternary25_FALSE:
1097   0B28             ; --- START FUNCTION CALL
1098   0B28 26 5F 1E      mov b, _s1 ; ". "
1099   0B2B FD AB         swp b
1100   0B2D D8            push b
1101   0B2E 07 77 0B      call printf
1102   0B31 51 02 00      add sp, 2
1103   0B34             ; --- END FUNCTION CALL
1104   0B34             _ternary25_exit:
1105   0B34             _for24_update:
1106   0B34 FA FD FF      lea d, [bp + -3] ; $j
1107   0B37 2A            mov b, [d]
1108   0B38 38 00 00      mov c, 0
1109   0B3B 11            mov a, b
1110   0B3C FD 77         inc b
1111   0B3E FA FD FF      lea d, [bp + -3] ; $j
1112   0B41 FD 43         mov [d], b
1113   0B43 27            mov b, a
1114   0B44 0A CC 0A      jmp _for24_cond
1115   0B47             _for24_exit:
1116   0B47             ; printf("\n\r"); 
1117   0B47             ; --- START FUNCTION CALL
1118   0B47 26 62 1E      mov b, _s2 ; "\n\r"
1119   0B4A FD AB         swp b
1120   0B4C D8            push b
1121   0B4D 07 77 0B      call printf
1122   0B50 51 02 00      add sp, 2
1123   0B53             ; --- END FUNCTION CALL
1124   0B53             _for23_update:
1125   0B53 FA FF FF      lea d, [bp + -1] ; $i
1126   0B56 2A            mov b, [d]
1127   0B57 38 00 00      mov c, 0
1128   0B5A 11            mov a, b
1129   0B5B FD 77         inc b
1130   0B5D FA FF FF      lea d, [bp + -1] ; $i
1131   0B60 FD 43         mov [d], b
1132   0B62 27            mov b, a
1133   0B63 0A A6 0A      jmp _for23_cond
1134   0B66             _for23_exit:
1135   0B66             ; puts("\n\rPress CTRL+C to quit.\n\r"); 
1136   0B66             ; --- START FUNCTION CALL
1137   0B66 26 65 1E      mov b, _s3 ; "\n\rPress CTRL+C to quit.\n\r"
1138   0B69 FD AB         swp b
1139   0B6B D8            push b
1140   0B6C 07 CF 14      call puts
1141   0B6F 51 02 00      add sp, 2
1142   0B72             ; --- END FUNCTION CALL
1143   0B72             _for8_update:
1144   0B72 0A E2 05      jmp _for8_cond
1145   0B75             _for8_exit:
1146   0B75 05 0B         syscall sys_terminate_proc
1147   0B77             
1148   0B77             printf:
1149   0B77 F8 00 00      enter 0 ; (push bp; mov bp, sp)
1150   0B7A             ; char *p, *format_p; 
1151   0B7A 52 01 00      sub sp, 1
1152   0B7D 52 02 00      sub sp, 2
1153   0B80             ; format_p = format; 
1154   0B80 FA FE FF      lea d, [bp + -2] ; $format_p
1155   0B83 DA            push d
1156   0B84 FA 05 00      lea d, [bp + 5] ; $format
1157   0B87 2A            mov b, [d]
1158   0B88 38 00 00      mov c, 0
1159   0B8B E7            pop d
1160   0B8C FD 43         mov [d], b
1161   0B8E             ; p = &format + 2; 
1162   0B8E FA 00 00      lea d, [bp + 0] ; $p
1163   0B91 DA            push d
1164   0B92 FA 05 00      lea d, [bp + 5] ; $format
1165   0B95 2D            mov b, d
1166   0B96             ; --- START TERMS
1167   0B96 D7            push a
1168   0B97 11            mov a, b
1169   0B98 FD 2E 02 00   mov32 cb, $00000002
1169   0B9C 00 00 
1170   0B9E 56            add b, a
1171   0B9F E4            pop a
1172   0BA0             ; --- END TERMS
1173   0BA0 E7            pop d
1174   0BA1 FD 3E         mov [d], bl
1175   0BA3             ; for(;;){ 
1176   0BA3             _for26_init:
1177   0BA3             _for26_cond:
1178   0BA3             _for26_block:
1179   0BA3             ; if(!*format_p) break; 
1180   0BA3             _if27_cond:
1181   0BA3 FA FE FF      lea d, [bp + -2] ; $format_p
1182   0BA6 2A            mov b, [d]
1183   0BA7 38 00 00      mov c, 0
1184   0BAA 74            mov d, b
1185   0BAB 32            mov bl, [d]
1186   0BAC A7 00         mov bh, 0
1187   0BAE 38 00 00      mov c, 0
1188   0BB1 C0 00 00      cmp b, 0
1189   0BB4 FD 71         seq ; !
1190   0BB6 C0 00 00      cmp b, 0
1191   0BB9 C6 C2 0B      je _if27_else
1192   0BBC             _if27_TRUE:
1193   0BBC             ; break; 
1194   0BBC 0A 83 0E      jmp _for26_exit ; for break
1195   0BBF 0A 70 0E      jmp _if27_exit
1196   0BC2             _if27_else:
1197   0BC2             ; if(*format_p == '%'){ 
1198   0BC2             _if28_cond:
1199   0BC2 FA FE FF      lea d, [bp + -2] ; $format_p
1200   0BC5 2A            mov b, [d]
1201   0BC6 38 00 00      mov c, 0
1202   0BC9 74            mov d, b
1203   0BCA 32            mov bl, [d]
1204   0BCB A7 00         mov bh, 0
1205   0BCD 38 00 00      mov c, 0
1206   0BD0             ; --- START RELATIONAL
1207   0BD0 D7            push a
1208   0BD1 11            mov a, b
1209   0BD2 FD 2E 25 00   mov32 cb, $00000025
1209   0BD6 00 00 
1210   0BD8 B0            cmp a, b
1211   0BD9 FD 71         seq ; ==
1212   0BDB E4            pop a
1213   0BDC             ; --- END RELATIONAL
1214   0BDC C0 00 00      cmp b, 0
1215   0BDF C6 5B 0E      je _if28_else
1216   0BE2             _if28_TRUE:
1217   0BE2             ; format_p++; 
1218   0BE2 FA FE FF      lea d, [bp + -2] ; $format_p
1219   0BE5 2A            mov b, [d]
1220   0BE6 38 00 00      mov c, 0
1221   0BE9 FD 77         inc b
1222   0BEB FA FE FF      lea d, [bp + -2] ; $format_p
1223   0BEE FD 43         mov [d], b
1224   0BF0 FD 7D         dec b
1225   0BF2             ; switch(*format_p){ 
1226   0BF2             _switch29_expr:
1227   0BF2 FA FE FF      lea d, [bp + -2] ; $format_p
1228   0BF5 2A            mov b, [d]
1229   0BF6 38 00 00      mov c, 0
1230   0BF9 74            mov d, b
1231   0BFA 32            mov bl, [d]
1232   0BFB A7 00         mov bh, 0
1233   0BFD 38 00 00      mov c, 0
1234   0C00             _switch29_comparisons:
1235   0C00 C1 6C         cmp bl, $6c
1236   0C02 C6 33 0C      je _switch29_case0
1237   0C05 C1 4C         cmp bl, $4c
1238   0C07 C6 33 0C      je _switch29_case1
1239   0C0A C1 64         cmp bl, $64
1240   0C0C C6 4B 0D      je _switch29_case2
1241   0C0F C1 69         cmp bl, $69
1242   0C11 C6 4B 0D      je _switch29_case3
1243   0C14 C1 75         cmp bl, $75
1244   0C16 C6 7F 0D      je _switch29_case4
1245   0C19 C1 78         cmp bl, $78
1246   0C1B C6 B3 0D      je _switch29_case5
1247   0C1E C1 70         cmp bl, $70
1248   0C20 C6 B3 0D      je _switch29_case6
1249   0C23 C1 63         cmp bl, $63
1250   0C25 C6 E7 0D      je _switch29_case7
1251   0C28 C1 73         cmp bl, $73
1252   0C2A C6 1B 0E      je _switch29_case8
1253   0C2D 0A 4C 0E      jmp _switch29_default
1254   0C30 0A 58 0E      jmp _switch29_exit
1255   0C33             _switch29_case0:
1256   0C33             _switch29_case1:
1257   0C33             ; format_p++; 
1258   0C33 FA FE FF      lea d, [bp + -2] ; $format_p
1259   0C36 2A            mov b, [d]
1260   0C37 38 00 00      mov c, 0
1261   0C3A FD 77         inc b
1262   0C3C FA FE FF      lea d, [bp + -2] ; $format_p
1263   0C3F FD 43         mov [d], b
1264   0C41 FD 7D         dec b
1265   0C43             ; if(*format_p == 'd' || *format_p == 'i') 
1266   0C43             _if30_cond:
1267   0C43 FA FE FF      lea d, [bp + -2] ; $format_p
1268   0C46 2A            mov b, [d]
1269   0C47 38 00 00      mov c, 0
1270   0C4A 74            mov d, b
1271   0C4B 32            mov bl, [d]
1272   0C4C A7 00         mov bh, 0
1273   0C4E 38 00 00      mov c, 0
1274   0C51             ; --- START RELATIONAL
1275   0C51 D7            push a
1276   0C52 11            mov a, b
1277   0C53 FD 2E 64 00   mov32 cb, $00000064
1277   0C57 00 00 
1278   0C59 B0            cmp a, b
1279   0C5A FD 71         seq ; ==
1280   0C5C E4            pop a
1281   0C5D             ; --- END RELATIONAL
1282   0C5D             ; --- START LOGICAL OR
1283   0C5D D7            push a
1284   0C5E 11            mov a, b
1285   0C5F FA FE FF      lea d, [bp + -2] ; $format_p
1286   0C62 2A            mov b, [d]
1287   0C63 38 00 00      mov c, 0
1288   0C66 74            mov d, b
1289   0C67 32            mov bl, [d]
1290   0C68 A7 00         mov bh, 0
1291   0C6A 38 00 00      mov c, 0
1292   0C6D             ; --- START RELATIONAL
1293   0C6D D7            push a
1294   0C6E 11            mov a, b
1295   0C6F FD 2E 69 00   mov32 cb, $00000069
1295   0C73 00 00 
1296   0C75 B0            cmp a, b
1297   0C76 FD 71         seq ; ==
1298   0C78 E4            pop a
1299   0C79             ; --- END RELATIONAL
1300   0C79 FD A8         sor a, b ; ||
1301   0C7B E4            pop a
1302   0C7C             ; --- END LOGICAL OR
1303   0C7C C0 00 00      cmp b, 0
1304   0C7F C6 A2 0C      je _if30_else
1305   0C82             _if30_TRUE:
1306   0C82             ; print_signed_long(*(long int*)p); 
1307   0C82             ; --- START FUNCTION CALL
1308   0C82 FA 00 00      lea d, [bp + 0] ; $p
1309   0C85 32            mov bl, [d]
1310   0C86 A7 00         mov bh, 0
1311   0C88 38 00 00      mov c, 0
1312   0C8B 74            mov d, b
1313   0C8C 2B 02 00      mov b, [d + 2] ; Upper Word of the Long Int
1314   0C8F FD 39         mov c, b ; And place it into C
1315   0C91 2A            mov b, [d] ; Lower Word in B
1316   0C92 12            mov a, c
1317   0C93 FD AA         swp a
1318   0C95 D7            push a
1319   0C96 FD AB         swp b
1320   0C98 D8            push b
1321   0C99 07 85 0E      call print_signed_long
1322   0C9C 51 04 00      add sp, 4
1323   0C9F             ; --- END FUNCTION CALL
1324   0C9F 0A 2E 0D      jmp _if30_exit
1325   0CA2             _if30_else:
1326   0CA2             ; if(*format_p == 'u') 
1327   0CA2             _if31_cond:
1328   0CA2 FA FE FF      lea d, [bp + -2] ; $format_p
1329   0CA5 2A            mov b, [d]
1330   0CA6 38 00 00      mov c, 0
1331   0CA9 74            mov d, b
1332   0CAA 32            mov bl, [d]
1333   0CAB A7 00         mov bh, 0
1334   0CAD 38 00 00      mov c, 0
1335   0CB0             ; --- START RELATIONAL
1336   0CB0 D7            push a
1337   0CB1 11            mov a, b
1338   0CB2 FD 2E 75 00   mov32 cb, $00000075
1338   0CB6 00 00 
1339   0CB8 B0            cmp a, b
1340   0CB9 FD 71         seq ; ==
1341   0CBB E4            pop a
1342   0CBC             ; --- END RELATIONAL
1343   0CBC C0 00 00      cmp b, 0
1344   0CBF C6 E2 0C      je _if31_else
1345   0CC2             _if31_TRUE:
1346   0CC2             ; print_unsigned_long(*(unsigned long int*)p); 
1347   0CC2             ; --- START FUNCTION CALL
1348   0CC2 FA 00 00      lea d, [bp + 0] ; $p
1349   0CC5 32            mov bl, [d]
1350   0CC6 A7 00         mov bh, 0
1351   0CC8 38 00 00      mov c, 0
1352   0CCB 74            mov d, b
1353   0CCC 2B 02 00      mov b, [d + 2] ; Upper Word of the Long Int
1354   0CCF FD 39         mov c, b ; And place it into C
1355   0CD1 2A            mov b, [d] ; Lower Word in B
1356   0CD2 12            mov a, c
1357   0CD3 FD AA         swp a
1358   0CD5 D7            push a
1359   0CD6 FD AB         swp b
1360   0CD8 D8            push b
1361   0CD9 07 5C 10      call print_unsigned_long
1362   0CDC 51 04 00      add sp, 4
1363   0CDF             ; --- END FUNCTION CALL
1364   0CDF 0A 2E 0D      jmp _if31_exit
1365   0CE2             _if31_else:
1366   0CE2             ; if(*format_p == 'x') 
1367   0CE2             _if32_cond:
1368   0CE2 FA FE FF      lea d, [bp + -2] ; $format_p
1369   0CE5 2A            mov b, [d]
1370   0CE6 38 00 00      mov c, 0
1371   0CE9 74            mov d, b
1372   0CEA 32            mov bl, [d]
1373   0CEB A7 00         mov bh, 0
1374   0CED 38 00 00      mov c, 0
1375   0CF0             ; --- START RELATIONAL
1376   0CF0 D7            push a
1377   0CF1 11            mov a, b
1378   0CF2 FD 2E 78 00   mov32 cb, $00000078
1378   0CF6 00 00 
1379   0CF8 B0            cmp a, b
1380   0CF9 FD 71         seq ; ==
1381   0CFB E4            pop a
1382   0CFC             ; --- END RELATIONAL
1383   0CFC C0 00 00      cmp b, 0
1384   0CFF C6 22 0D      je _if32_else
1385   0D02             _if32_TRUE:
1386   0D02             ; printx32(*(long int *)p); 
1387   0D02             ; --- START FUNCTION CALL
1388   0D02 FA 00 00      lea d, [bp + 0] ; $p
1389   0D05 32            mov bl, [d]
1390   0D06 A7 00         mov bh, 0
1391   0D08 38 00 00      mov c, 0
1392   0D0B 74            mov d, b
1393   0D0C 2B 02 00      mov b, [d + 2] ; Upper Word of the Long Int
1394   0D0F FD 39         mov c, b ; And place it into C
1395   0D11 2A            mov b, [d] ; Lower Word in B
1396   0D12 12            mov a, c
1397   0D13 FD AA         swp a
1398   0D15 D7            push a
1399   0D16 FD AB         swp b
1400   0D18 D8            push b
1401   0D19 07 87 11      call printx32
1402   0D1C 51 04 00      add sp, 4
1403   0D1F             ; --- END FUNCTION CALL
1404   0D1F 0A 2E 0D      jmp _if32_exit
1405   0D22             _if32_else:
1406   0D22             ; err("Unexpected format in printf."); 
1407   0D22             ; --- START FUNCTION CALL
1408   0D22 26 7F 1E      mov b, _s4 ; "Unexpected format in printf."
1409   0D25 FD AB         swp b
1410   0D27 D8            push b
1411   0D28 07 E7 11      call err
1412   0D2B 51 02 00      add sp, 2
1413   0D2E             ; --- END FUNCTION CALL
1414   0D2E             _if32_exit:
1415   0D2E             _if31_exit:
1416   0D2E             _if30_exit:
1417   0D2E             ; p = p + 4; 
1418   0D2E FA 00 00      lea d, [bp + 0] ; $p
1419   0D31 DA            push d
1420   0D32 FA 00 00      lea d, [bp + 0] ; $p
1421   0D35 32            mov bl, [d]
1422   0D36 A7 00         mov bh, 0
1423   0D38 38 00 00      mov c, 0
1424   0D3B             ; --- START TERMS
1425   0D3B D7            push a
1426   0D3C 11            mov a, b
1427   0D3D FD 2E 04 00   mov32 cb, $00000004
1427   0D41 00 00 
1428   0D43 56            add b, a
1429   0D44 E4            pop a
1430   0D45             ; --- END TERMS
1431   0D45 E7            pop d
1432   0D46 FD 3E         mov [d], bl
1433   0D48             ; break; 
1434   0D48 0A 58 0E      jmp _switch29_exit ; case break
1435   0D4B             _switch29_case2:
1436   0D4B             _switch29_case3:
1437   0D4B             ; print_signed(*(int*)p); 
1438   0D4B             ; --- START FUNCTION CALL
1439   0D4B FA 00 00      lea d, [bp + 0] ; $p
1440   0D4E 32            mov bl, [d]
1441   0D4F A7 00         mov bh, 0
1442   0D51 38 00 00      mov c, 0
1443   0D54 74            mov d, b
1444   0D55 2A            mov b, [d]
1445   0D56 38 00 00      mov c, 0
1446   0D59 FD AB         swp b
1447   0D5B D8            push b
1448   0D5C 07 15 12      call print_signed
1449   0D5F 51 02 00      add sp, 2
1450   0D62             ; --- END FUNCTION CALL
1451   0D62             ; p = p + 2; 
1452   0D62 FA 00 00      lea d, [bp + 0] ; $p
1453   0D65 DA            push d
1454   0D66 FA 00 00      lea d, [bp + 0] ; $p
1455   0D69 32            mov bl, [d]
1456   0D6A A7 00         mov bh, 0
1457   0D6C 38 00 00      mov c, 0
1458   0D6F             ; --- START TERMS
1459   0D6F D7            push a
1460   0D70 11            mov a, b
1461   0D71 FD 2E 02 00   mov32 cb, $00000002
1461   0D75 00 00 
1462   0D77 56            add b, a
1463   0D78 E4            pop a
1464   0D79             ; --- END TERMS
1465   0D79 E7            pop d
1466   0D7A FD 3E         mov [d], bl
1467   0D7C             ; break; 
1468   0D7C 0A 58 0E      jmp _switch29_exit ; case break
1469   0D7F             _switch29_case4:
1470   0D7F             ; print_unsigned(*(unsigned int*)p); 
1471   0D7F             ; --- START FUNCTION CALL
1472   0D7F FA 00 00      lea d, [bp + 0] ; $p
1473   0D82 32            mov bl, [d]
1474   0D83 A7 00         mov bh, 0
1475   0D85 38 00 00      mov c, 0
1476   0D88 74            mov d, b
1477   0D89 2A            mov b, [d]
1478   0D8A 38 00 00      mov c, 0
1479   0D8D FD AB         swp b
1480   0D8F D8            push b
1481   0D90 07 78 13      call print_unsigned
1482   0D93 51 02 00      add sp, 2
1483   0D96             ; --- END FUNCTION CALL
1484   0D96             ; p = p + 2; 
1485   0D96 FA 00 00      lea d, [bp + 0] ; $p
1486   0D99 DA            push d
1487   0D9A FA 00 00      lea d, [bp + 0] ; $p
1488   0D9D 32            mov bl, [d]
1489   0D9E A7 00         mov bh, 0
1490   0DA0 38 00 00      mov c, 0
1491   0DA3             ; --- START TERMS
1492   0DA3 D7            push a
1493   0DA4 11            mov a, b
1494   0DA5 FD 2E 02 00   mov32 cb, $00000002
1494   0DA9 00 00 
1495   0DAB 56            add b, a
1496   0DAC E4            pop a
1497   0DAD             ; --- END TERMS
1498   0DAD E7            pop d
1499   0DAE FD 3E         mov [d], bl
1500   0DB0             ; break; 
1501   0DB0 0A 58 0E      jmp _switch29_exit ; case break
1502   0DB3             _switch29_case5:
1503   0DB3             _switch29_case6:
1504   0DB3             ; printx16(*(int*)p); 
1505   0DB3             ; --- START FUNCTION CALL
1506   0DB3 FA 00 00      lea d, [bp + 0] ; $p
1507   0DB6 32            mov bl, [d]
1508   0DB7 A7 00         mov bh, 0
1509   0DB9 38 00 00      mov c, 0
1510   0DBC 74            mov d, b
1511   0DBD 2A            mov b, [d]
1512   0DBE 38 00 00      mov c, 0
1513   0DC1 FD AB         swp b
1514   0DC3 D8            push b
1515   0DC4 07 7D 14      call printx16
1516   0DC7 51 02 00      add sp, 2
1517   0DCA             ; --- END FUNCTION CALL
1518   0DCA             ; p = p + 2; 
1519   0DCA FA 00 00      lea d, [bp + 0] ; $p
1520   0DCD DA            push d
1521   0DCE FA 00 00      lea d, [bp + 0] ; $p
1522   0DD1 32            mov bl, [d]
1523   0DD2 A7 00         mov bh, 0
1524   0DD4 38 00 00      mov c, 0
1525   0DD7             ; --- START TERMS
1526   0DD7 D7            push a
1527   0DD8 11            mov a, b
1528   0DD9 FD 2E 02 00   mov32 cb, $00000002
1528   0DDD 00 00 
1529   0DDF 56            add b, a
1530   0DE0 E4            pop a
1531   0DE1             ; --- END TERMS
1532   0DE1 E7            pop d
1533   0DE2 FD 3E         mov [d], bl
1534   0DE4             ; break; 
1535   0DE4 0A 58 0E      jmp _switch29_exit ; case break
1536   0DE7             _switch29_case7:
1537   0DE7             ; putchar(*(char*)p); 
1538   0DE7             ; --- START FUNCTION CALL
1539   0DE7 FA 00 00      lea d, [bp + 0] ; $p
1540   0DEA 32            mov bl, [d]
1541   0DEB A7 00         mov bh, 0
1542   0DED 38 00 00      mov c, 0
1543   0DF0 74            mov d, b
1544   0DF1 32            mov bl, [d]
1545   0DF2 A7 00         mov bh, 0
1546   0DF4 38 00 00      mov c, 0
1547   0DF7 DD            push bl
1548   0DF8 07 4E 10      call putchar
1549   0DFB 51 01 00      add sp, 1
1550   0DFE             ; --- END FUNCTION CALL
1551   0DFE             ; p = p + 2; 
1552   0DFE FA 00 00      lea d, [bp + 0] ; $p
1553   0E01 DA            push d
1554   0E02 FA 00 00      lea d, [bp + 0] ; $p
1555   0E05 32            mov bl, [d]
1556   0E06 A7 00         mov bh, 0
1557   0E08 38 00 00      mov c, 0
1558   0E0B             ; --- START TERMS
1559   0E0B D7            push a
1560   0E0C 11            mov a, b
1561   0E0D FD 2E 02 00   mov32 cb, $00000002
1561   0E11 00 00 
1562   0E13 56            add b, a
1563   0E14 E4            pop a
1564   0E15             ; --- END TERMS
1565   0E15 E7            pop d
1566   0E16 FD 3E         mov [d], bl
1567   0E18             ; break; 
1568   0E18 0A 58 0E      jmp _switch29_exit ; case break
1569   0E1B             _switch29_case8:
1570   0E1B             ; print(*(char**)p); 
1571   0E1B             ; --- START FUNCTION CALL
1572   0E1B FA 00 00      lea d, [bp + 0] ; $p
1573   0E1E 32            mov bl, [d]
1574   0E1F A7 00         mov bh, 0
1575   0E21 38 00 00      mov c, 0
1576   0E24 74            mov d, b
1577   0E25 2A            mov b, [d]
1578   0E26 FD AB         swp b
1579   0E28 D8            push b
1580   0E29 07 FC 11      call print
1581   0E2C 51 02 00      add sp, 2
1582   0E2F             ; --- END FUNCTION CALL
1583   0E2F             ; p = p + 2; 
1584   0E2F FA 00 00      lea d, [bp + 0] ; $p
1585   0E32 DA            push d
1586   0E33 FA 00 00      lea d, [bp + 0] ; $p
1587   0E36 32            mov bl, [d]
1588   0E37 A7 00         mov bh, 0
1589   0E39 38 00 00      mov c, 0
1590   0E3C             ; --- START TERMS
1591   0E3C D7            push a
1592   0E3D 11            mov a, b
1593   0E3E FD 2E 02 00   mov32 cb, $00000002
1593   0E42 00 00 
1594   0E44 56            add b, a
1595   0E45 E4            pop a
1596   0E46             ; --- END TERMS
1597   0E46 E7            pop d
1598   0E47 FD 3E         mov [d], bl
1599   0E49             ; break; 
1600   0E49 0A 58 0E      jmp _switch29_exit ; case break
1601   0E4C             _switch29_default:
1602   0E4C             ; print("Error: Unknown argument type.\n"); 
1603   0E4C             ; --- START FUNCTION CALL
1604   0E4C 26 9C 1E      mov b, _s5 ; "Error: Unknown argument type.\n"
1605   0E4F FD AB         swp b
1606   0E51 D8            push b
1607   0E52 07 FC 11      call print
1608   0E55 51 02 00      add sp, 2
1609   0E58             ; --- END FUNCTION CALL
1610   0E58             _switch29_exit:
1611   0E58 0A 70 0E      jmp _if28_exit
1612   0E5B             _if28_else:
1613   0E5B             ; putchar(*format_p); 
1614   0E5B             ; --- START FUNCTION CALL
1615   0E5B FA FE FF      lea d, [bp + -2] ; $format_p
1616   0E5E 2A            mov b, [d]
1617   0E5F 38 00 00      mov c, 0
1618   0E62 74            mov d, b
1619   0E63 32            mov bl, [d]
1620   0E64 A7 00         mov bh, 0
1621   0E66 38 00 00      mov c, 0
1622   0E69 DD            push bl
1623   0E6A 07 4E 10      call putchar
1624   0E6D 51 01 00      add sp, 1
1625   0E70             ; --- END FUNCTION CALL
1626   0E70             _if28_exit:
1627   0E70             _if27_exit:
1628   0E70             ; format_p++; 
1629   0E70 FA FE FF      lea d, [bp + -2] ; $format_p
1630   0E73 2A            mov b, [d]
1631   0E74 38 00 00      mov c, 0
1632   0E77 FD 77         inc b
1633   0E79 FA FE FF      lea d, [bp + -2] ; $format_p
1634   0E7C FD 43         mov [d], b
1635   0E7E FD 7D         dec b
1636   0E80             _for26_update:
1637   0E80 0A A3 0B      jmp _for26_cond
1638   0E83             _for26_exit:
1639   0E83 F9            leave
1640   0E84 09            ret
1641   0E85             
1642   0E85             print_signed_long:
1643   0E85 F8 00 00      enter 0 ; (push bp; mov bp, sp)
1644   0E88             ; char digits[10];  // fits 2,147,483,647 
1645   0E88 52 0A 00      sub sp, 10
1646   0E8B             ; int i = 0; 
1647   0E8B 52 02 00      sub sp, 2
1648   0E8E             ; --- START LOCAL VAR INITIALIZATION
1649   0E8E FA F5 FF      lea d, [bp + -11] ; $i
1650   0E91 DA            push d
1651   0E92 FD 2E 00 00   mov32 cb, $00000000
1651   0E96 00 00 
1652   0E98 E7            pop d
1653   0E99 FD 43         mov [d], b
1654   0E9B             ; --- END LOCAL VAR INITIALIZATION
1655   0E9B             ; unsigned long int absval; 
1656   0E9B 52 04 00      sub sp, 4
1657   0E9E             ; if (num < 0) { 
1658   0E9E             _if33_cond:
1659   0E9E FA 05 00      lea d, [bp + 5] ; $num
1660   0EA1 2B 02 00      mov b, [d + 2] ; Upper Word of the Long Int
1661   0EA4 FD 39         mov c, b ; And place it into C
1662   0EA6 2A            mov b, [d] ; Lower Word in B
1663   0EA7             ; --- START RELATIONAL
1664   0EA7 D7            push a
1665   0EA8 FD D8         push g
1666   0EAA 11            mov a, b
1667   0EAB FD 7A         mov g, c
1668   0EAD FD 2E 00 00   mov32 cb, $00000000
1668   0EB1 00 00 
1669   0EB3 38 00 00      mov c, 0
1670   0EB6 FD AF         cmp32 ga, cb
1671   0EB8 FD 73         slt ; <
1672   0EBA FD F1         pop g
1673   0EBC E4            pop a
1674   0EBD             ; --- END RELATIONAL
1675   0EBD C0 00 00      cmp b, 0
1676   0EC0 C6 1F 0F      je _if33_else
1677   0EC3             _if33_TRUE:
1678   0EC3             ; putchar('-'); 
1679   0EC3             ; --- START FUNCTION CALL
1680   0EC3 FD 2E 2D 00   mov32 cb, $0000002d
1680   0EC7 00 00 
1681   0EC9 DD            push bl
1682   0ECA 07 4E 10      call putchar
1683   0ECD 51 01 00      add sp, 1
1684   0ED0             ; --- END FUNCTION CALL
1685   0ED0             ; absval = (unsigned long int)(-(num + 1)) + 1; 
1686   0ED0 FA F1 FF      lea d, [bp + -15] ; $absval
1687   0ED3 DA            push d
1688   0ED4 FA 05 00      lea d, [bp + 5] ; $num
1689   0ED7 2B 02 00      mov b, [d + 2] ; Upper Word of the Long Int
1690   0EDA FD 39         mov c, b ; And place it into C
1691   0EDC 2A            mov b, [d] ; Lower Word in B
1692   0EDD             ; --- START TERMS
1693   0EDD D7            push a
1694   0EDE FD D8         push g
1695   0EE0 11            mov a, b
1696   0EE1 FD 7A         mov g, c
1697   0EE3 FD 2E 01 00   mov32 cb, $00000001
1697   0EE7 00 00 
1698   0EE9 38 00 00      mov c, 0
1699   0EEC FD 15         add32 cb, ga
1700   0EEE FD F1         pop g
1701   0EF0 E4            pop a
1702   0EF1             ; --- END TERMS
1703   0EF1 12            mov a, c
1704   0EF2 95            not a
1705   0EF3 97            not b
1706   0EF4 55 01 00      add b, 1
1707   0EF7 5B 00 00      adc a, 0
1708   0EFA 39            mov c, a
1709   0EFB A7 00         mov bh, 0
1710   0EFD 38 00 00      mov c, 0
1711   0F00             ; --- START TERMS
1712   0F00 D7            push a
1713   0F01 FD D8         push g
1714   0F03 11            mov a, b
1715   0F04 FD 7A         mov g, c
1716   0F06 FD 2E 01 00   mov32 cb, $00000001
1716   0F0A 00 00 
1717   0F0C 38 00 00      mov c, 0
1718   0F0F FD 15         add32 cb, ga
1719   0F11 FD F1         pop g
1720   0F13 E4            pop a
1721   0F14             ; --- END TERMS
1722   0F14 E7            pop d
1723   0F15 FD 43         mov [d], b
1724   0F17 28            mov b, c
1725   0F18 FD 44 02 00   mov [d + 2], b
1726   0F1C 0A 39 0F      jmp _if33_exit
1727   0F1F             _if33_else:
1728   0F1F             ; absval = (unsigned long int)num; 
1729   0F1F FA F1 FF      lea d, [bp + -15] ; $absval
1730   0F22 DA            push d
1731   0F23 FA 05 00      lea d, [bp + 5] ; $num
1732   0F26 2B 02 00      mov b, [d + 2] ; Upper Word of the Long Int
1733   0F29 FD 39         mov c, b ; And place it into C
1734   0F2B 2A            mov b, [d] ; Lower Word in B
1735   0F2C A7 00         mov bh, 0
1736   0F2E 38 00 00      mov c, 0
1737   0F31 E7            pop d
1738   0F32 FD 43         mov [d], b
1739   0F34 28            mov b, c
1740   0F35 FD 44 02 00   mov [d + 2], b
1741   0F39             _if33_exit:
1742   0F39             ; if (absval == 0) { 
1743   0F39             _if34_cond:
1744   0F39 FA F1 FF      lea d, [bp + -15] ; $absval
1745   0F3C 2B 02 00      mov b, [d + 2] ; Upper Word of the Long Int
1746   0F3F FD 39         mov c, b ; And place it into C
1747   0F41 2A            mov b, [d] ; Lower Word in B
1748   0F42             ; --- START RELATIONAL
1749   0F42 D7            push a
1750   0F43 FD D8         push g
1751   0F45 11            mov a, b
1752   0F46 FD 7A         mov g, c
1753   0F48 FD 2E 00 00   mov32 cb, $00000000
1753   0F4C 00 00 
1754   0F4E 38 00 00      mov c, 0
1755   0F51 FD AF         cmp32 ga, cb
1756   0F53 FD 71         seq ; ==
1757   0F55 FD F1         pop g
1758   0F57 E4            pop a
1759   0F58             ; --- END RELATIONAL
1760   0F58 C0 00 00      cmp b, 0
1761   0F5B C6 70 0F      je _if34_exit
1762   0F5E             _if34_TRUE:
1763   0F5E             ; putchar('0'); 
1764   0F5E             ; --- START FUNCTION CALL
1765   0F5E FD 2E 30 00   mov32 cb, $00000030
1765   0F62 00 00 
1766   0F64 DD            push bl
1767   0F65 07 4E 10      call putchar
1768   0F68 51 01 00      add sp, 1
1769   0F6B             ; --- END FUNCTION CALL
1770   0F6B             ; return; 
1771   0F6B F9            leave
1772   0F6C 09            ret
1773   0F6D 0A 70 0F      jmp _if34_exit
1774   0F70             _if34_exit:
1775   0F70             ; while (absval > 0) { 
1776   0F70             _while35_cond:
1777   0F70 FA F1 FF      lea d, [bp + -15] ; $absval
1778   0F73 2B 02 00      mov b, [d + 2] ; Upper Word of the Long Int
1779   0F76 FD 39         mov c, b ; And place it into C
1780   0F78 2A            mov b, [d] ; Lower Word in B
1781   0F79             ; --- START RELATIONAL
1782   0F79 D7            push a
1783   0F7A FD D8         push g
1784   0F7C 11            mov a, b
1785   0F7D FD 7A         mov g, c
1786   0F7F FD 2E 00 00   mov32 cb, $00000000
1786   0F83 00 00 
1787   0F85 38 00 00      mov c, 0
1788   0F88 FD AF         cmp32 ga, cb
1789   0F8A FD 81         sgu
1790   0F8C FD F1         pop g
1791   0F8E E4            pop a
1792   0F8F             ; --- END RELATIONAL
1793   0F8F C0 00 00      cmp b, 0
1794   0F92 C6 10 10      je _while35_exit
1795   0F95             _while35_block:
1796   0F95             ; digits[i++] = '0' + (absval % 10); 
1797   0F95 FA F7 FF      lea d, [bp + -9] ; $digits
1798   0F98 D7            push a
1799   0F99 DA            push d
1800   0F9A FA F5 FF      lea d, [bp + -11] ; $i
1801   0F9D 2A            mov b, [d]
1802   0F9E 38 00 00      mov c, 0
1803   0FA1 11            mov a, b
1804   0FA2 FD 77         inc b
1805   0FA4 FA F5 FF      lea d, [bp + -11] ; $i
1806   0FA7 FD 43         mov [d], b
1807   0FA9 27            mov b, a
1808   0FAA E7            pop d
1809   0FAB 5A            add d, b
1810   0FAC E4            pop a
1811   0FAD DA            push d
1812   0FAE FD 2E 30 00   mov32 cb, $00000030
1812   0FB2 00 00 
1813   0FB4             ; --- START TERMS
1814   0FB4 D7            push a
1815   0FB5 11            mov a, b
1816   0FB6 FA F1 FF      lea d, [bp + -15] ; $absval
1817   0FB9 2B 02 00      mov b, [d + 2] ; Upper Word of the Long Int
1818   0FBC FD 39         mov c, b ; And place it into C
1819   0FBE 2A            mov b, [d] ; Lower Word in B
1820   0FBF             ; --- START FACTORS
1821   0FBF D7            push a
1822   0FC0 FD D8         push g
1823   0FC2 11            mov a, b
1824   0FC3 FD 7A         mov g, c
1825   0FC5 FD 2E 0A 00   mov32 cb, $0000000a
1825   0FC9 00 00 
1826   0FCB FD D8         push g ; save 'g' as the div instruction uses it
1827   0FCD AE            div a, b ; %, a: quotient, b: remainder
1828   0FCE 11            mov a, b
1829   0FCF FD F1         pop g
1830   0FD1 FD 38         mov c, g
1831   0FD3 27            mov b, a
1832   0FD4 FD F1         pop g
1833   0FD6 E4            pop a
1834   0FD7             ; --- END FACTORS
1835   0FD7 FD 22 00 00   mov g, 0
1836   0FDB FD 15         add32 cb, ga
1837   0FDD E4            pop a
1838   0FDE             ; --- END TERMS
1839   0FDE E7            pop d
1840   0FDF FD 3E         mov [d], bl
1841   0FE1             ; absval = absval / 10; 
1842   0FE1 FA F1 FF      lea d, [bp + -15] ; $absval
1843   0FE4 DA            push d
1844   0FE5 FA F1 FF      lea d, [bp + -15] ; $absval
1845   0FE8 2B 02 00      mov b, [d + 2] ; Upper Word of the Long Int
1846   0FEB FD 39         mov c, b ; And place it into C
1847   0FED 2A            mov b, [d] ; Lower Word in B
1848   0FEE             ; --- START FACTORS
1849   0FEE D7            push a
1850   0FEF FD D8         push g
1851   0FF1 11            mov a, b
1852   0FF2 FD 7A         mov g, c
1853   0FF4 FD 2E 0A 00   mov32 cb, $0000000a
1853   0FF8 00 00 
1854   0FFA FD D8         push g ; save 'g' as the div instruction uses it
1855   0FFC AE            div a, b ; /, a: quotient, b: remainder
1856   0FFD FD F1         pop g
1857   0FFF FD 38         mov c, g
1858   1001 27            mov b, a
1859   1002 FD F1         pop g
1860   1004 E4            pop a
1861   1005             ; --- END FACTORS
1862   1005 E7            pop d
1863   1006 FD 43         mov [d], b
1864   1008 28            mov b, c
1865   1009 FD 44 02 00   mov [d + 2], b
1866   100D 0A 70 0F      jmp _while35_cond
1867   1010             _while35_exit:
1868   1010             ; while (i > 0) { 
1869   1010             _while42_cond:
1870   1010 FA F5 FF      lea d, [bp + -11] ; $i
1871   1013 2A            mov b, [d]
1872   1014 38 00 00      mov c, 0
1873   1017             ; --- START RELATIONAL
1874   1017 D7            push a
1875   1018 11            mov a, b
1876   1019 FD 2E 00 00   mov32 cb, $00000000
1876   101D 00 00 
1877   101F B0            cmp a, b
1878   1020 FD 7F         sgt ; >
1879   1022 E4            pop a
1880   1023             ; --- END RELATIONAL
1881   1023 C0 00 00      cmp b, 0
1882   1026 C6 4C 10      je _while42_exit
1883   1029             _while42_block:
1884   1029             ; putchar(digits[--i]); 
1885   1029             ; --- START FUNCTION CALL
1886   1029 FA F7 FF      lea d, [bp + -9] ; $digits
1887   102C D7            push a
1888   102D DA            push d
1889   102E FA F5 FF      lea d, [bp + -11] ; $i
1890   1031 2A            mov b, [d]
1891   1032 FD 7D         dec b
1892   1034 FA F5 FF      lea d, [bp + -11] ; $i
1893   1037 FD 43         mov [d], b
1894   1039 E7            pop d
1895   103A 5A            add d, b
1896   103B E4            pop a
1897   103C 32            mov bl, [d]
1898   103D A7 00         mov bh, 0
1899   103F 38 00 00      mov c, 0
1900   1042 DD            push bl
1901   1043 07 4E 10      call putchar
1902   1046 51 01 00      add sp, 1
1903   1049             ; --- END FUNCTION CALL
1904   1049 0A 10 10      jmp _while42_cond
1905   104C             _while42_exit:
1906   104C F9            leave
1907   104D 09            ret
1908   104E             
1909   104E             putchar:
1910   104E F8 00 00      enter 0 ; (push bp; mov bp, sp)
1911   1051             ; --- BEGIN INLINE ASM SEGMENT
1912   1051 FA 05 00      lea d, [bp + 5] ; $c
1913   1054 1E            mov al, [d]
1914   1055 23            mov ah, al
1915   1056 19 00         mov al, 0
1916   1058 05 03         syscall sys_io      ; char in AH
1917   105A             ; --- END INLINE ASM SEGMENT
1918   105A F9            leave
1919   105B 09            ret
1920   105C             
1921   105C             print_unsigned_long:
1922   105C F8 00 00      enter 0 ; (push bp; mov bp, sp)
1923   105F             ; char digits[10]; 
1924   105F 52 0A 00      sub sp, 10
1925   1062             ; int i = 0; 
1926   1062 52 02 00      sub sp, 2
1927   1065             ; --- START LOCAL VAR INITIALIZATION
1928   1065 FA F5 FF      lea d, [bp + -11] ; $i
1929   1068 DA            push d
1930   1069 FD 2E 00 00   mov32 cb, $00000000
1930   106D 00 00 
1931   106F E7            pop d
1932   1070 FD 43         mov [d], b
1933   1072             ; --- END LOCAL VAR INITIALIZATION
1934   1072             ; if(num == 0){ 
1935   1072             _if43_cond:
1936   1072 FA 05 00      lea d, [bp + 5] ; $num
1937   1075 2B 02 00      mov b, [d + 2] ; Upper Word of the Long Int
1938   1078 FD 39         mov c, b ; And place it into C
1939   107A 2A            mov b, [d] ; Lower Word in B
1940   107B             ; --- START RELATIONAL
1941   107B D7            push a
1942   107C FD D8         push g
1943   107E 11            mov a, b
1944   107F FD 7A         mov g, c
1945   1081 FD 2E 00 00   mov32 cb, $00000000
1945   1085 00 00 
1946   1087 38 00 00      mov c, 0
1947   108A FD AF         cmp32 ga, cb
1948   108C FD 71         seq ; ==
1949   108E FD F1         pop g
1950   1090 E4            pop a
1951   1091             ; --- END RELATIONAL
1952   1091 C0 00 00      cmp b, 0
1953   1094 C6 A9 10      je _if43_exit
1954   1097             _if43_TRUE:
1955   1097             ; putchar('0'); 
1956   1097             ; --- START FUNCTION CALL
1957   1097 FD 2E 30 00   mov32 cb, $00000030
1957   109B 00 00 
1958   109D DD            push bl
1959   109E 07 4E 10      call putchar
1960   10A1 51 01 00      add sp, 1
1961   10A4             ; --- END FUNCTION CALL
1962   10A4             ; return; 
1963   10A4 F9            leave
1964   10A5 09            ret
1965   10A6 0A A9 10      jmp _if43_exit
1966   10A9             _if43_exit:
1967   10A9             ; while (num > 0) { 
1968   10A9             _while44_cond:
1969   10A9 FA 05 00      lea d, [bp + 5] ; $num
1970   10AC 2B 02 00      mov b, [d + 2] ; Upper Word of the Long Int
1971   10AF FD 39         mov c, b ; And place it into C
1972   10B1 2A            mov b, [d] ; Lower Word in B
1973   10B2             ; --- START RELATIONAL
1974   10B2 D7            push a
1975   10B3 FD D8         push g
1976   10B5 11            mov a, b
1977   10B6 FD 7A         mov g, c
1978   10B8 FD 2E 00 00   mov32 cb, $00000000
1978   10BC 00 00 
1979   10BE 38 00 00      mov c, 0
1980   10C1 FD AF         cmp32 ga, cb
1981   10C3 FD 81         sgu
1982   10C5 FD F1         pop g
1983   10C7 E4            pop a
1984   10C8             ; --- END RELATIONAL
1985   10C8 C0 00 00      cmp b, 0
1986   10CB C6 49 11      je _while44_exit
1987   10CE             _while44_block:
1988   10CE             ; digits[i++] = '0' + (num % 10); 
1989   10CE FA F7 FF      lea d, [bp + -9] ; $digits
1990   10D1 D7            push a
1991   10D2 DA            push d
1992   10D3 FA F5 FF      lea d, [bp + -11] ; $i
1993   10D6 2A            mov b, [d]
1994   10D7 38 00 00      mov c, 0
1995   10DA 11            mov a, b
1996   10DB FD 77         inc b
1997   10DD FA F5 FF      lea d, [bp + -11] ; $i
1998   10E0 FD 43         mov [d], b
1999   10E2 27            mov b, a
2000   10E3 E7            pop d
2001   10E4 5A            add d, b
2002   10E5 E4            pop a
2003   10E6 DA            push d
2004   10E7 FD 2E 30 00   mov32 cb, $00000030
2004   10EB 00 00 
2005   10ED             ; --- START TERMS
2006   10ED D7            push a
2007   10EE 11            mov a, b
2008   10EF FA 05 00      lea d, [bp + 5] ; $num
2009   10F2 2B 02 00      mov b, [d + 2] ; Upper Word of the Long Int
2010   10F5 FD 39         mov c, b ; And place it into C
2011   10F7 2A            mov b, [d] ; Lower Word in B
2012   10F8             ; --- START FACTORS
2013   10F8 D7            push a
2014   10F9 FD D8         push g
2015   10FB 11            mov a, b
2016   10FC FD 7A         mov g, c
2017   10FE FD 2E 0A 00   mov32 cb, $0000000a
2017   1102 00 00 
2018   1104 FD D8         push g ; save 'g' as the div instruction uses it
2019   1106 AE            div a, b ; %, a: quotient, b: remainder
2020   1107 11            mov a, b
2021   1108 FD F1         pop g
2022   110A FD 38         mov c, g
2023   110C 27            mov b, a
2024   110D FD F1         pop g
2025   110F E4            pop a
2026   1110             ; --- END FACTORS
2027   1110 FD 22 00 00   mov g, 0
2028   1114 FD 15         add32 cb, ga
2029   1116 E4            pop a
2030   1117             ; --- END TERMS
2031   1117 E7            pop d
2032   1118 FD 3E         mov [d], bl
2033   111A             ; num = num / 10; 
2034   111A FA 05 00      lea d, [bp + 5] ; $num
2035   111D DA            push d
2036   111E FA 05 00      lea d, [bp + 5] ; $num
2037   1121 2B 02 00      mov b, [d + 2] ; Upper Word of the Long Int
2038   1124 FD 39         mov c, b ; And place it into C
2039   1126 2A            mov b, [d] ; Lower Word in B
2040   1127             ; --- START FACTORS
2041   1127 D7            push a
2042   1128 FD D8         push g
2043   112A 11            mov a, b
2044   112B FD 7A         mov g, c
2045   112D FD 2E 0A 00   mov32 cb, $0000000a
2045   1131 00 00 
2046   1133 FD D8         push g ; save 'g' as the div instruction uses it
2047   1135 AE            div a, b ; /, a: quotient, b: remainder
2048   1136 FD F1         pop g
2049   1138 FD 38         mov c, g
2050   113A 27            mov b, a
2051   113B FD F1         pop g
2052   113D E4            pop a
2053   113E             ; --- END FACTORS
2054   113E E7            pop d
2055   113F FD 43         mov [d], b
2056   1141 28            mov b, c
2057   1142 FD 44 02 00   mov [d + 2], b
2058   1146 0A A9 10      jmp _while44_cond
2059   1149             _while44_exit:
2060   1149             ; while (i > 0) { 
2061   1149             _while51_cond:
2062   1149 FA F5 FF      lea d, [bp + -11] ; $i
2063   114C 2A            mov b, [d]
2064   114D 38 00 00      mov c, 0
2065   1150             ; --- START RELATIONAL
2066   1150 D7            push a
2067   1151 11            mov a, b
2068   1152 FD 2E 00 00   mov32 cb, $00000000
2068   1156 00 00 
2069   1158 B0            cmp a, b
2070   1159 FD 7F         sgt ; >
2071   115B E4            pop a
2072   115C             ; --- END RELATIONAL
2073   115C C0 00 00      cmp b, 0
2074   115F C6 85 11      je _while51_exit
2075   1162             _while51_block:
2076   1162             ; putchar(digits[--i]); 
2077   1162             ; --- START FUNCTION CALL
2078   1162 FA F7 FF      lea d, [bp + -9] ; $digits
2079   1165 D7            push a
2080   1166 DA            push d
2081   1167 FA F5 FF      lea d, [bp + -11] ; $i
2082   116A 2A            mov b, [d]
2083   116B FD 7D         dec b
2084   116D FA F5 FF      lea d, [bp + -11] ; $i
2085   1170 FD 43         mov [d], b
2086   1172 E7            pop d
2087   1173 5A            add d, b
2088   1174 E4            pop a
2089   1175 32            mov bl, [d]
2090   1176 A7 00         mov bh, 0
2091   1178 38 00 00      mov c, 0
2092   117B DD            push bl
2093   117C 07 4E 10      call putchar
2094   117F 51 01 00      add sp, 1
2095   1182             ; --- END FUNCTION CALL
2096   1182 0A 49 11      jmp _while51_cond
2097   1185             _while51_exit:
2098   1185 F9            leave
2099   1186 09            ret
2100   1187             
2101   1187             printx32:
2102   1187 F8 00 00      enter 0 ; (push bp; mov bp, sp)
2103   118A             ; --- BEGIN INLINE ASM SEGMENT
2104   118A FA 05 00      lea d, [bp + 5] ; $hex
2105   118D 2B 02 00      mov b, [d+2]
2106   1190 07 99 11      call print_u16x_printx32
2107   1193 2A            mov b, [d]
2108   1194 07 99 11      call print_u16x_printx32
2109   1197             ; --- END INLINE ASM SEGMENT
2110   1197             ; return; 
2111   1197 F9            leave
2112   1198 09            ret
2113   1199             ; --- BEGIN INLINE ASM SEGMENT
2114   1199             print_u16x_printx32:
2115   1199 D7            push a
2116   119A D8            push b
2117   119B DD            push bl
2118   119C 30            mov bl, bh
2119   119D 07 BB 11      call _itoa_printx32        ; convert bh to char in A
2120   11A0 2F            mov bl, al        ; save al
2121   11A1 19 00         mov al, 0
2122   11A3 05 03         syscall sys_io        ; display AH
2123   11A5 24            mov ah, bl        ; retrieve al
2124   11A6 19 00         mov al, 0
2125   11A8 05 03         syscall sys_io        ; display AL
2126   11AA EA            pop bl
2127   11AB 07 BB 11      call _itoa_printx32        ; convert bh to char in A
2128   11AE 2F            mov bl, al        ; save al
2129   11AF 19 00         mov al, 0
2130   11B1 05 03         syscall sys_io        ; display AH
2131   11B3 24            mov ah, bl        ; retrieve al
2132   11B4 19 00         mov al, 0
2133   11B6 05 03         syscall sys_io        ; display AL
2134   11B8 E5            pop b
2135   11B9 E4            pop a
2136   11BA 09            ret
2137   11BB             _itoa_printx32:
2138   11BB DA            push d
2139   11BC D8            push b
2140   11BD A7 00         mov bh, 0
2141   11BF FD A4 04      shr bl, 4  
2142   11C2 74            mov d, b
2143   11C3 1F D5 11      mov al, [d + s_hex_digits_printx32]
2144   11C6 23            mov ah, al
2145   11C7 E5            pop b
2146   11C8 D8            push b
2147   11C9 A7 00         mov bh, 0
2148   11CB FD 87 0F      and bl, $0F
2149   11CE 74            mov d, b
2150   11CF 1F D5 11      mov al, [d + s_hex_digits_printx32]
2151   11D2 E5            pop b
2152   11D3 E7            pop d
2153   11D4 09            ret
2154   11D5 30 31 32 33 s_hex_digits_printx32: .db "0123456789ABCDEF"  
2154   11D9 34 35 36 37 
2154   11DD 38 39 41 42 
2154   11E1 43 44 45 46 
2155   11E5             ; --- END INLINE ASM SEGMENT
2156   11E5 F9            leave
2157   11E6 09            ret
2158   11E7             
2159   11E7             err:
2160   11E7 F8 00 00      enter 0 ; (push bp; mov bp, sp)
2161   11EA             ; print(e); 
2162   11EA             ; --- START FUNCTION CALL
2163   11EA FA 05 00      lea d, [bp + 5] ; $e
2164   11ED 2A            mov b, [d]
2165   11EE 38 00 00      mov c, 0
2166   11F1 FD AB         swp b
2167   11F3 D8            push b
2168   11F4 07 FC 11      call print
2169   11F7 51 02 00      add sp, 2
2170   11FA             ; --- END FUNCTION CALL
2171   11FA F9            leave
2172   11FB 09            ret
2173   11FC             
2174   11FC             print:
2175   11FC F8 00 00      enter 0 ; (push bp; mov bp, sp)
2176   11FF             ; --- BEGIN INLINE ASM SEGMENT
2177   11FF FA 05 00      lea d, [bp + 5] ; $s
2178   1202 FD 2A         mov d, [d]
2179   1204             _puts_L1_print:
2180   1204 1E            mov al, [d]
2181   1205 B9 00         cmp al, 0
2182   1207 C6 13 12      jz _puts_END_print
2183   120A 23            mov ah, al
2184   120B 19 00         mov al, 0
2185   120D 05 03         syscall sys_io
2186   120F 79            inc d
2187   1210 0A 04 12      jmp _puts_L1_print
2188   1213             _puts_END_print:
2189   1213             ; --- END INLINE ASM SEGMENT
2190   1213 F9            leave
2191   1214 09            ret
2192   1215             
2193   1215             print_signed:
2194   1215 F8 00 00      enter 0 ; (push bp; mov bp, sp)
2195   1218             ; char digits[5];  // enough for "-32768" 
2196   1218 52 05 00      sub sp, 5
2197   121B             ; int i = 0; 
2198   121B 52 02 00      sub sp, 2
2199   121E             ; --- START LOCAL VAR INITIALIZATION
2200   121E FA FA FF      lea d, [bp + -6] ; $i
2201   1221 DA            push d
2202   1222 FD 2E 00 00   mov32 cb, $00000000
2202   1226 00 00 
2203   1228 E7            pop d
2204   1229 FD 43         mov [d], b
2205   122B             ; --- END LOCAL VAR INITIALIZATION
2206   122B             ; unsigned int absval; 
2207   122B 52 02 00      sub sp, 2
2208   122E             ; if (num < 0) { 
2209   122E             _if52_cond:
2210   122E FA 05 00      lea d, [bp + 5] ; $num
2211   1231 2A            mov b, [d]
2212   1232 38 00 00      mov c, 0
2213   1235             ; --- START RELATIONAL
2214   1235 D7            push a
2215   1236 11            mov a, b
2216   1237 FD 2E 00 00   mov32 cb, $00000000
2216   123B 00 00 
2217   123D B0            cmp a, b
2218   123E FD 73         slt ; < (signed)
2219   1240 E4            pop a
2220   1241             ; --- END RELATIONAL
2221   1241 C0 00 00      cmp b, 0
2222   1244 C6 7B 12      je _if52_else
2223   1247             _if52_TRUE:
2224   1247             ; putchar('-'); 
2225   1247             ; --- START FUNCTION CALL
2226   1247 FD 2E 2D 00   mov32 cb, $0000002d
2226   124B 00 00 
2227   124D DD            push bl
2228   124E 07 4E 10      call putchar
2229   1251 51 01 00      add sp, 1
2230   1254             ; --- END FUNCTION CALL
2231   1254             ; absval = (unsigned int)(-(num + 1)) + 1;  // safe for -32768 
2232   1254 FA F8 FF      lea d, [bp + -8] ; $absval
2233   1257 DA            push d
2234   1258 FA 05 00      lea d, [bp + 5] ; $num
2235   125B 2A            mov b, [d]
2236   125C 38 00 00      mov c, 0
2237   125F             ; --- START TERMS
2238   125F D7            push a
2239   1260 11            mov a, b
2240   1261 FD 2E 01 00   mov32 cb, $00000001
2240   1265 00 00 
2241   1267 56            add b, a
2242   1268 E4            pop a
2243   1269             ; --- END TERMS
2244   1269 FD 97         neg b
2245   126B             ; --- START TERMS
2246   126B D7            push a
2247   126C 11            mov a, b
2248   126D FD 2E 01 00   mov32 cb, $00000001
2248   1271 00 00 
2249   1273 56            add b, a
2250   1274 E4            pop a
2251   1275             ; --- END TERMS
2252   1275 E7            pop d
2253   1276 FD 43         mov [d], b
2254   1278 0A 89 12      jmp _if52_exit
2255   127B             _if52_else:
2256   127B             ; absval = (unsigned int)num; 
2257   127B FA F8 FF      lea d, [bp + -8] ; $absval
2258   127E DA            push d
2259   127F FA 05 00      lea d, [bp + 5] ; $num
2260   1282 2A            mov b, [d]
2261   1283 38 00 00      mov c, 0
2262   1286 E7            pop d
2263   1287 FD 43         mov [d], b
2264   1289             _if52_exit:
2265   1289             ; if (absval == 0) { 
2266   1289             _if53_cond:
2267   1289 FA F8 FF      lea d, [bp + -8] ; $absval
2268   128C 2A            mov b, [d]
2269   128D 38 00 00      mov c, 0
2270   1290             ; --- START RELATIONAL
2271   1290 D7            push a
2272   1291 11            mov a, b
2273   1292 FD 2E 00 00   mov32 cb, $00000000
2273   1296 00 00 
2274   1298 B0            cmp a, b
2275   1299 FD 71         seq ; ==
2276   129B E4            pop a
2277   129C             ; --- END RELATIONAL
2278   129C C0 00 00      cmp b, 0
2279   129F C6 B4 12      je _if53_exit
2280   12A2             _if53_TRUE:
2281   12A2             ; putchar('0'); 
2282   12A2             ; --- START FUNCTION CALL
2283   12A2 FD 2E 30 00   mov32 cb, $00000030
2283   12A6 00 00 
2284   12A8 DD            push bl
2285   12A9 07 4E 10      call putchar
2286   12AC 51 01 00      add sp, 1
2287   12AF             ; --- END FUNCTION CALL
2288   12AF             ; return; 
2289   12AF F9            leave
2290   12B0 09            ret
2291   12B1 0A B4 12      jmp _if53_exit
2292   12B4             _if53_exit:
2293   12B4             ; while (absval > 0) { 
2294   12B4             _while54_cond:
2295   12B4 FA F8 FF      lea d, [bp + -8] ; $absval
2296   12B7 2A            mov b, [d]
2297   12B8 38 00 00      mov c, 0
2298   12BB             ; --- START RELATIONAL
2299   12BB D7            push a
2300   12BC 11            mov a, b
2301   12BD FD 2E 00 00   mov32 cb, $00000000
2301   12C1 00 00 
2302   12C3 B0            cmp a, b
2303   12C4 FD 81         sgu ; > (unsigned)
2304   12C6 E4            pop a
2305   12C7             ; --- END RELATIONAL
2306   12C7 C0 00 00      cmp b, 0
2307   12CA C6 3A 13      je _while54_exit
2308   12CD             _while54_block:
2309   12CD             ; digits[i++] = '0' + (absval % 10); 
2310   12CD FA FC FF      lea d, [bp + -4] ; $digits
2311   12D0 D7            push a
2312   12D1 DA            push d
2313   12D2 FA FA FF      lea d, [bp + -6] ; $i
2314   12D5 2A            mov b, [d]
2315   12D6 38 00 00      mov c, 0
2316   12D9 11            mov a, b
2317   12DA FD 77         inc b
2318   12DC FA FA FF      lea d, [bp + -6] ; $i
2319   12DF FD 43         mov [d], b
2320   12E1 27            mov b, a
2321   12E2 E7            pop d
2322   12E3 5A            add d, b
2323   12E4 E4            pop a
2324   12E5 DA            push d
2325   12E6 FD 2E 30 00   mov32 cb, $00000030
2325   12EA 00 00 
2326   12EC             ; --- START TERMS
2327   12EC D7            push a
2328   12ED 11            mov a, b
2329   12EE FA F8 FF      lea d, [bp + -8] ; $absval
2330   12F1 2A            mov b, [d]
2331   12F2 38 00 00      mov c, 0
2332   12F5             ; --- START FACTORS
2333   12F5 D7            push a
2334   12F6 FD D8         push g
2335   12F8 11            mov a, b
2336   12F9 FD 7A         mov g, c
2337   12FB FD 2E 0A 00   mov32 cb, $0000000a
2337   12FF 00 00 
2338   1301 FD D8         push g ; save 'g' as the div instruction uses it
2339   1303 AE            div a, b ; %, a: quotient, b: remainder
2340   1304 11            mov a, b
2341   1305 FD F1         pop g
2342   1307 FD 38         mov c, g
2343   1309 27            mov b, a
2344   130A FD F1         pop g
2345   130C E4            pop a
2346   130D             ; --- END FACTORS
2347   130D 56            add b, a
2348   130E E4            pop a
2349   130F             ; --- END TERMS
2350   130F E7            pop d
2351   1310 FD 3E         mov [d], bl
2352   1312             ; absval = absval / 10; 
2353   1312 FA F8 FF      lea d, [bp + -8] ; $absval
2354   1315 DA            push d
2355   1316 FA F8 FF      lea d, [bp + -8] ; $absval
2356   1319 2A            mov b, [d]
2357   131A 38 00 00      mov c, 0
2358   131D             ; --- START FACTORS
2359   131D D7            push a
2360   131E FD D8         push g
2361   1320 11            mov a, b
2362   1321 FD 7A         mov g, c
2363   1323 FD 2E 0A 00   mov32 cb, $0000000a
2363   1327 00 00 
2364   1329 FD D8         push g ; save 'g' as the div instruction uses it
2365   132B AE            div a, b ; /, a: quotient, b: remainder
2366   132C FD F1         pop g
2367   132E FD 38         mov c, g
2368   1330 27            mov b, a
2369   1331 FD F1         pop g
2370   1333 E4            pop a
2371   1334             ; --- END FACTORS
2372   1334 E7            pop d
2373   1335 FD 43         mov [d], b
2374   1337 0A B4 12      jmp _while54_cond
2375   133A             _while54_exit:
2376   133A             ; while (i > 0) { 
2377   133A             _while61_cond:
2378   133A FA FA FF      lea d, [bp + -6] ; $i
2379   133D 2A            mov b, [d]
2380   133E 38 00 00      mov c, 0
2381   1341             ; --- START RELATIONAL
2382   1341 D7            push a
2383   1342 11            mov a, b
2384   1343 FD 2E 00 00   mov32 cb, $00000000
2384   1347 00 00 
2385   1349 B0            cmp a, b
2386   134A FD 7F         sgt ; >
2387   134C E4            pop a
2388   134D             ; --- END RELATIONAL
2389   134D C0 00 00      cmp b, 0
2390   1350 C6 76 13      je _while61_exit
2391   1353             _while61_block:
2392   1353             ; putchar(digits[--i]); 
2393   1353             ; --- START FUNCTION CALL
2394   1353 FA FC FF      lea d, [bp + -4] ; $digits
2395   1356 D7            push a
2396   1357 DA            push d
2397   1358 FA FA FF      lea d, [bp + -6] ; $i
2398   135B 2A            mov b, [d]
2399   135C FD 7D         dec b
2400   135E FA FA FF      lea d, [bp + -6] ; $i
2401   1361 FD 43         mov [d], b
2402   1363 E7            pop d
2403   1364 5A            add d, b
2404   1365 E4            pop a
2405   1366 32            mov bl, [d]
2406   1367 A7 00         mov bh, 0
2407   1369 38 00 00      mov c, 0
2408   136C DD            push bl
2409   136D 07 4E 10      call putchar
2410   1370 51 01 00      add sp, 1
2411   1373             ; --- END FUNCTION CALL
2412   1373 0A 3A 13      jmp _while61_cond
2413   1376             _while61_exit:
2414   1376 F9            leave
2415   1377 09            ret
2416   1378             
2417   1378             print_unsigned:
2418   1378 F8 00 00      enter 0 ; (push bp; mov bp, sp)
2419   137B             ; char digits[5]; 
2420   137B 52 05 00      sub sp, 5
2421   137E             ; int i = 0; 
2422   137E 52 02 00      sub sp, 2
2423   1381             ; --- START LOCAL VAR INITIALIZATION
2424   1381 FA FA FF      lea d, [bp + -6] ; $i
2425   1384 DA            push d
2426   1385 FD 2E 00 00   mov32 cb, $00000000
2426   1389 00 00 
2427   138B E7            pop d
2428   138C FD 43         mov [d], b
2429   138E             ; --- END LOCAL VAR INITIALIZATION
2430   138E             ; if(num == 0){ 
2431   138E             _if62_cond:
2432   138E FA 05 00      lea d, [bp + 5] ; $num
2433   1391 2A            mov b, [d]
2434   1392 38 00 00      mov c, 0
2435   1395             ; --- START RELATIONAL
2436   1395 D7            push a
2437   1396 11            mov a, b
2438   1397 FD 2E 00 00   mov32 cb, $00000000
2438   139B 00 00 
2439   139D B0            cmp a, b
2440   139E FD 71         seq ; ==
2441   13A0 E4            pop a
2442   13A1             ; --- END RELATIONAL
2443   13A1 C0 00 00      cmp b, 0
2444   13A4 C6 B9 13      je _if62_exit
2445   13A7             _if62_TRUE:
2446   13A7             ; putchar('0'); 
2447   13A7             ; --- START FUNCTION CALL
2448   13A7 FD 2E 30 00   mov32 cb, $00000030
2448   13AB 00 00 
2449   13AD DD            push bl
2450   13AE 07 4E 10      call putchar
2451   13B1 51 01 00      add sp, 1
2452   13B4             ; --- END FUNCTION CALL
2453   13B4             ; return; 
2454   13B4 F9            leave
2455   13B5 09            ret
2456   13B6 0A B9 13      jmp _if62_exit
2457   13B9             _if62_exit:
2458   13B9             ; while (num > 0) { 
2459   13B9             _while63_cond:
2460   13B9 FA 05 00      lea d, [bp + 5] ; $num
2461   13BC 2A            mov b, [d]
2462   13BD 38 00 00      mov c, 0
2463   13C0             ; --- START RELATIONAL
2464   13C0 D7            push a
2465   13C1 11            mov a, b
2466   13C2 FD 2E 00 00   mov32 cb, $00000000
2466   13C6 00 00 
2467   13C8 B0            cmp a, b
2468   13C9 FD 81         sgu ; > (unsigned)
2469   13CB E4            pop a
2470   13CC             ; --- END RELATIONAL
2471   13CC C0 00 00      cmp b, 0
2472   13CF C6 3F 14      je _while63_exit
2473   13D2             _while63_block:
2474   13D2             ; digits[i++] = '0' + (num % 10); 
2475   13D2 FA FC FF      lea d, [bp + -4] ; $digits
2476   13D5 D7            push a
2477   13D6 DA            push d
2478   13D7 FA FA FF      lea d, [bp + -6] ; $i
2479   13DA 2A            mov b, [d]
2480   13DB 38 00 00      mov c, 0
2481   13DE 11            mov a, b
2482   13DF FD 77         inc b
2483   13E1 FA FA FF      lea d, [bp + -6] ; $i
2484   13E4 FD 43         mov [d], b
2485   13E6 27            mov b, a
2486   13E7 E7            pop d
2487   13E8 5A            add d, b
2488   13E9 E4            pop a
2489   13EA DA            push d
2490   13EB FD 2E 30 00   mov32 cb, $00000030
2490   13EF 00 00 
2491   13F1             ; --- START TERMS
2492   13F1 D7            push a
2493   13F2 11            mov a, b
2494   13F3 FA 05 00      lea d, [bp + 5] ; $num
2495   13F6 2A            mov b, [d]
2496   13F7 38 00 00      mov c, 0
2497   13FA             ; --- START FACTORS
2498   13FA D7            push a
2499   13FB FD D8         push g
2500   13FD 11            mov a, b
2501   13FE FD 7A         mov g, c
2502   1400 FD 2E 0A 00   mov32 cb, $0000000a
2502   1404 00 00 
2503   1406 FD D8         push g ; save 'g' as the div instruction uses it
2504   1408 AE            div a, b ; %, a: quotient, b: remainder
2505   1409 11            mov a, b
2506   140A FD F1         pop g
2507   140C FD 38         mov c, g
2508   140E 27            mov b, a
2509   140F FD F1         pop g
2510   1411 E4            pop a
2511   1412             ; --- END FACTORS
2512   1412 56            add b, a
2513   1413 E4            pop a
2514   1414             ; --- END TERMS
2515   1414 E7            pop d
2516   1415 FD 3E         mov [d], bl
2517   1417             ; num = num / 10; 
2518   1417 FA 05 00      lea d, [bp + 5] ; $num
2519   141A DA            push d
2520   141B FA 05 00      lea d, [bp + 5] ; $num
2521   141E 2A            mov b, [d]
2522   141F 38 00 00      mov c, 0
2523   1422             ; --- START FACTORS
2524   1422 D7            push a
2525   1423 FD D8         push g
2526   1425 11            mov a, b
2527   1426 FD 7A         mov g, c
2528   1428 FD 2E 0A 00   mov32 cb, $0000000a
2528   142C 00 00 
2529   142E FD D8         push g ; save 'g' as the div instruction uses it
2530   1430 AE            div a, b ; /, a: quotient, b: remainder
2531   1431 FD F1         pop g
2532   1433 FD 38         mov c, g
2533   1435 27            mov b, a
2534   1436 FD F1         pop g
2535   1438 E4            pop a
2536   1439             ; --- END FACTORS
2537   1439 E7            pop d
2538   143A FD 43         mov [d], b
2539   143C 0A B9 13      jmp _while63_cond
2540   143F             _while63_exit:
2541   143F             ; while (i > 0) { 
2542   143F             _while70_cond:
2543   143F FA FA FF      lea d, [bp + -6] ; $i
2544   1442 2A            mov b, [d]
2545   1443 38 00 00      mov c, 0
2546   1446             ; --- START RELATIONAL
2547   1446 D7            push a
2548   1447 11            mov a, b
2549   1448 FD 2E 00 00   mov32 cb, $00000000
2549   144C 00 00 
2550   144E B0            cmp a, b
2551   144F FD 7F         sgt ; >
2552   1451 E4            pop a
2553   1452             ; --- END RELATIONAL
2554   1452 C0 00 00      cmp b, 0
2555   1455 C6 7B 14      je _while70_exit
2556   1458             _while70_block:
2557   1458             ; putchar(digits[--i]); 
2558   1458             ; --- START FUNCTION CALL
2559   1458 FA FC FF      lea d, [bp + -4] ; $digits
2560   145B D7            push a
2561   145C DA            push d
2562   145D FA FA FF      lea d, [bp + -6] ; $i
2563   1460 2A            mov b, [d]
2564   1461 FD 7D         dec b
2565   1463 FA FA FF      lea d, [bp + -6] ; $i
2566   1466 FD 43         mov [d], b
2567   1468 E7            pop d
2568   1469 5A            add d, b
2569   146A E4            pop a
2570   146B 32            mov bl, [d]
2571   146C A7 00         mov bh, 0
2572   146E 38 00 00      mov c, 0
2573   1471 DD            push bl
2574   1472 07 4E 10      call putchar
2575   1475 51 01 00      add sp, 1
2576   1478             ; --- END FUNCTION CALL
2577   1478 0A 3F 14      jmp _while70_cond
2578   147B             _while70_exit:
2579   147B F9            leave
2580   147C 09            ret
2581   147D             
2582   147D             printx16:
2583   147D F8 00 00      enter 0 ; (push bp; mov bp, sp)
2584   1480             ; --- BEGIN INLINE ASM SEGMENT
2585   1480 FA 05 00      lea d, [bp + 5] ; $hex
2586   1483 2A            mov b, [d]
2587   1484             print_u16x_printx16:
2588   1484 DD            push bl
2589   1485 30            mov bl, bh
2590   1486 07 A3 14      call _itoa_printx16        ; convert bh to char in A
2591   1489 2F            mov bl, al        ; save al
2592   148A 19 00         mov al, 0
2593   148C 05 03         syscall sys_io        ; display AH
2594   148E 24            mov ah, bl        ; retrieve al
2595   148F 19 00         mov al, 0
2596   1491 05 03         syscall sys_io        ; display AL
2597   1493 EA            pop bl
2598   1494 07 A3 14      call _itoa_printx16        ; convert bh to char in A
2599   1497 2F            mov bl, al        ; save al
2600   1498 19 00         mov al, 0
2601   149A 05 03         syscall sys_io        ; display AH
2602   149C 24            mov ah, bl        ; retrieve al
2603   149D 19 00         mov al, 0
2604   149F 05 03         syscall sys_io        ; display AL
2605   14A1             ; --- END INLINE ASM SEGMENT
2606   14A1             ; return; 
2607   14A1 F9            leave
2608   14A2 09            ret
2609   14A3             ; --- BEGIN INLINE ASM SEGMENT
2610   14A3             _itoa_printx16:
2611   14A3 DA            push d
2612   14A4 D8            push b
2613   14A5 A7 00         mov bh, 0
2614   14A7 FD A4 04      shr bl, 4  
2615   14AA 74            mov d, b
2616   14AB 1F BD 14      mov al, [d + s_hex_digits_printx16]
2617   14AE 23            mov ah, al
2618   14AF E5            pop b
2619   14B0 D8            push b
2620   14B1 A7 00         mov bh, 0
2621   14B3 FD 87 0F      and bl, $0F
2622   14B6 74            mov d, b
2623   14B7 1F BD 14      mov al, [d + s_hex_digits_printx16]
2624   14BA E5            pop b
2625   14BB E7            pop d
2626   14BC 09            ret
2627   14BD 30 31 32 33 s_hex_digits_printx16:    .db "0123456789ABCDEF"  
2627   14C1 34 35 36 37 
2627   14C5 38 39 41 42 
2627   14C9 43 44 45 46 
2628   14CD             ; --- END INLINE ASM SEGMENT
2629   14CD F9            leave
2630   14CE 09            ret
2631   14CF             
2632   14CF             puts:
2633   14CF F8 00 00      enter 0 ; (push bp; mov bp, sp)
2634   14D2             ; --- BEGIN INLINE ASM SEGMENT
2635   14D2 FA 05 00      lea d, [bp + 5] ; $s
2636   14D5 FD 2A         mov d, [d]
2637   14D7             _puts_L1_puts:
2638   14D7 1E            mov al, [d]
2639   14D8 B9 00         cmp al, 0
2640   14DA C6 E6 14      jz _puts_END_puts
2641   14DD 23            mov ah, al
2642   14DE 19 00         mov al, 0
2643   14E0 05 03         syscall sys_io
2644   14E2 79            inc d
2645   14E3 0A D7 14      jmp _puts_L1_puts
2646   14E6             _puts_END_puts:
2647   14E6 10 00 0A      mov a, $0A00
2648   14E9 05 03         syscall sys_io
2649   14EB             ; --- END INLINE ASM SEGMENT
2650   14EB F9            leave
2651   14EC 09            ret
2652   14ED             ; --- END TEXT SEGMENT
2653   14ED             
2654   14ED             ; --- BEGIN DATA SEGMENT
2655   14ED 1B 5B 32 4A _clear_data: .db $1b,$5b,$32,$4a,$1b,$5b,$48,$00,
2655   14F1 1B 5B 48 00 
2656   14F5             
2657   14F5 00 00 00    .fill 3, 0
2658   14F8 00 00 00 00 _nextState_data: .fill 1200, 0
2658   14FC 00 00 00 00 
2658   1500 00 00 00 00 
2658   1504 00 00 00 00 
2658   1508 00 00 00 00 
2658   150C 00 00 00 00 
2658   1510 00 00 00 00 
2658   1514 00 00 00 00 
2658   1518 00 00 00 00 
2658   151C 00 00 00 00 
2658   1520 00 00 00 00 
2658   1524 00 00 00 00 
2658   1528 00 00 00 00 
2658   152C 00 00 00 00 
2658   1530 00 00 00 00 
2658   1534 00 00 00 00 
2658   1538 00 00 00 00 
2658   153C 00 00 00 00 
2658   1540 00 00 00 00 
2658   1544 00 00 00 00 
2658   1548 00 00 00 00 
2658   154C 00 00 00 00 
2658   1550 00 00 00 00 
2658   1554 00 00 00 00 
2658   1558 00 00 00 00 
2658   155C 00 00 00 00 
2658   1560 00 00 00 00 
2658   1564 00 00 00 00 
2658   1568 00 00 00 00 
2658   156C 00 00 00 00 
2658   1570 00 00 00 00 
2658   1574 00 00 00 00 
2658   1578 00 00 00 00 
2658   157C 00 00 00 00 
2658   1580 00 00 00 00 
2658   1584 00 00 00 00 
2658   1588 00 00 00 00 
2658   158C 00 00 00 00 
2658   1590 00 00 00 00 
2658   1594 00 00 00 00 
2658   1598 00 00 00 00 
2658   159C 00 00 00 00 
2658   15A0 00 00 00 00 
2658   15A4 00 00 00 00 
2658   15A8 00 00 00 00 
2658   15AC 00 00 00 00 
2658   15B0 00 00 00 00 
2658   15B4 00 00 00 00 
2658   15B8 00 00 00 00 
2658   15BC 00 00 00 00 
2658   15C0 00 00 00 00 
2658   15C4 00 00 00 00 
2658   15C8 00 00 00 00 
2658   15CC 00 00 00 00 
2658   15D0 00 00 00 00 
2658   15D4 00 00 00 00 
2658   15D8 00 00 00 00 
2658   15DC 00 00 00 00 
2658   15E0 00 00 00 00 
2658   15E4 00 00 00 00 
2658   15E8 00 00 00 00 
2658   15EC 00 00 00 00 
2658   15F0 00 00 00 00 
2658   15F4 00 00 00 00 
2658   15F8 00 00 00 00 
2658   15FC 00 00 00 00 
2658   1600 00 00 00 00 
2658   1604 00 00 00 00 
2658   1608 00 00 00 00 
2658   160C 00 00 00 00 
2658   1610 00 00 00 00 
2658   1614 00 00 00 00 
2658   1618 00 00 00 00 
2658   161C 00 00 00 00 
2658   1620 00 00 00 00 
2658   1624 00 00 00 00 
2658   1628 00 00 00 00 
2658   162C 00 00 00 00 
2658   1630 00 00 00 00 
2658   1634 00 00 00 00 
2658   1638 00 00 00 00 
2658   163C 00 00 00 00 
2658   1640 00 00 00 00 
2658   1644 00 00 00 00 
2658   1648 00 00 00 00 
2658   164C 00 00 00 00 
2658   1650 00 00 00 00 
2658   1654 00 00 00 00 
2658   1658 00 00 00 00 
2658   165C 00 00 00 00 
2658   1660 00 00 00 00 
2658   1664 00 00 00 00 
2658   1668 00 00 00 00 
2658   166C 00 00 00 00 
2658   1670 00 00 00 00 
2658   1674 00 00 00 00 
2658   1678 00 00 00 00 
2658   167C 00 00 00 00 
2658   1680 00 00 00 00 
2658   1684 00 00 00 00 
2658   1688 00 00 00 00 
2658   168C 00 00 00 00 
2658   1690 00 00 00 00 
2658   1694 00 00 00 00 
2658   1698 00 00 00 00 
2658   169C 00 00 00 00 
2658   16A0 00 00 00 00 
2658   16A4 00 00 00 00 
2658   16A8 00 00 00 00 
2658   16AC 00 00 00 00 
2658   16B0 00 00 00 00 
2658   16B4 00 00 00 00 
2658   16B8 00 00 00 00 
2658   16BC 00 00 00 00 
2658   16C0 00 00 00 00 
2658   16C4 00 00 00 00 
2658   16C8 00 00 00 00 
2658   16CC 00 00 00 00 
2658   16D0 00 00 00 00 
2658   16D4 00 00 00 00 
2658   16D8 00 00 00 00 
2658   16DC 00 00 00 00 
2658   16E0 00 00 00 00 
2658   16E4 00 00 00 00 
2658   16E8 00 00 00 00 
2658   16EC 00 00 00 00 
2658   16F0 00 00 00 00 
2658   16F4 00 00 00 00 
2658   16F8 00 00 00 00 
2658   16FC 00 00 00 00 
2658   1700 00 00 00 00 
2658   1704 00 00 00 00 
2658   1708 00 00 00 00 
2658   170C 00 00 00 00 
2658   1710 00 00 00 00 
2658   1714 00 00 00 00 
2658   1718 00 00 00 00 
2658   171C 00 00 00 00 
2658   1720 00 00 00 00 
2658   1724 00 00 00 00 
2658   1728 00 00 00 00 
2658   172C 00 00 00 00 
2658   1730 00 00 00 00 
2658   1734 00 00 00 00 
2658   1738 00 00 00 00 
2658   173C 00 00 00 00 
2658   1740 00 00 00 00 
2658   1744 00 00 00 00 
2658   1748 00 00 00 00 
2658   174C 00 00 00 00 
2658   1750 00 00 00 00 
2658   1754 00 00 00 00 
2658   1758 00 00 00 00 
2658   175C 00 00 00 00 
2658   1760 00 00 00 00 
2658   1764 00 00 00 00 
2658   1768 00 00 00 00 
2658   176C 00 00 00 00 
2658   1770 00 00 00 00 
2658   1774 00 00 00 00 
2658   1778 00 00 00 00 
2658   177C 00 00 00 00 
2658   1780 00 00 00 00 
2658   1784 00 00 00 00 
2658   1788 00 00 00 00 
2658   178C 00 00 00 00 
2658   1790 00 00 00 00 
2658   1794 00 00 00 00 
2658   1798 00 00 00 00 
2658   179C 00 00 00 00 
2658   17A0 00 00 00 00 
2658   17A4 00 00 00 00 
2658   17A8 00 00 00 00 
2658   17AC 00 00 00 00 
2658   17B0 00 00 00 00 
2658   17B4 00 00 00 00 
2658   17B8 00 00 00 00 
2658   17BC 00 00 00 00 
2658   17C0 00 00 00 00 
2658   17C4 00 00 00 00 
2658   17C8 00 00 00 00 
2658   17CC 00 00 00 00 
2658   17D0 00 00 00 00 
2658   17D4 00 00 00 00 
2658   17D8 00 00 00 00 
2658   17DC 00 00 00 00 
2658   17E0 00 00 00 00 
2658   17E4 00 00 00 00 
2658   17E8 00 00 00 00 
2658   17EC 00 00 00 00 
2658   17F0 00 00 00 00 
2658   17F4 00 00 00 00 
2658   17F8 00 00 00 00 
2658   17FC 00 00 00 00 
2658   1800 00 00 00 00 
2658   1804 00 00 00 00 
2658   1808 00 00 00 00 
2658   180C 00 00 00 00 
2658   1810 00 00 00 00 
2658   1814 00 00 00 00 
2658   1818 00 00 00 00 
2658   181C 00 00 00 00 
2658   1820 00 00 00 00 
2658   1824 00 00 00 00 
2658   1828 00 00 00 00 
2658   182C 00 00 00 00 
2658   1830 00 00 00 00 
2658   1834 00 00 00 00 
2658   1838 00 00 00 00 
2658   183C 00 00 00 00 
2658   1840 00 00 00 00 
2658   1844 00 00 00 00 
2658   1848 00 00 00 00 
2658   184C 00 00 00 00 
2658   1850 00 00 00 00 
2658   1854 00 00 00 00 
2658   1858 00 00 00 00 
2658   185C 00 00 00 00 
2658   1860 00 00 00 00 
2658   1864 00 00 00 00 
2658   1868 00 00 00 00 
2658   186C 00 00 00 00 
2658   1870 00 00 00 00 
2658   1874 00 00 00 00 
2658   1878 00 00 00 00 
2658   187C 00 00 00 00 
2658   1880 00 00 00 00 
2658   1884 00 00 00 00 
2658   1888 00 00 00 00 
2658   188C 00 00 00 00 
2658   1890 00 00 00 00 
2658   1894 00 00 00 00 
2658   1898 00 00 00 00 
2658   189C 00 00 00 00 
2658   18A0 00 00 00 00 
2658   18A4 00 00 00 00 
2658   18A8 00 00 00 00 
2658   18AC 00 00 00 00 
2658   18B0 00 00 00 00 
2658   18B4 00 00 00 00 
2658   18B8 00 00 00 00 
2658   18BC 00 00 00 00 
2658   18C0 00 00 00 00 
2658   18C4 00 00 00 00 
2658   18C8 00 00 00 00 
2658   18CC 00 00 00 00 
2658   18D0 00 00 00 00 
2658   18D4 00 00 00 00 
2658   18D8 00 00 00 00 
2658   18DC 00 00 00 00 
2658   18E0 00 00 00 00 
2658   18E4 00 00 00 00 
2658   18E8 00 00 00 00 
2658   18EC 00 00 00 00 
2658   18F0 00 00 00 00 
2658   18F4 00 00 00 00 
2658   18F8 00 00 00 00 
2658   18FC 00 00 00 00 
2658   1900 00 00 00 00 
2658   1904 00 00 00 00 
2658   1908 00 00 00 00 
2658   190C 00 00 00 00 
2658   1910 00 00 00 00 
2658   1914 00 00 00 00 
2658   1918 00 00 00 00 
2658   191C 00 00 00 00 
2658   1920 00 00 00 00 
2658   1924 00 00 00 00 
2658   1928 00 00 00 00 
2658   192C 00 00 00 00 
2658   1930 00 00 00 00 
2658   1934 00 00 00 00 
2658   1938 00 00 00 00 
2658   193C 00 00 00 00 
2658   1940 00 00 00 00 
2658   1944 00 00 00 00 
2658   1948 00 00 00 00 
2658   194C 00 00 00 00 
2658   1950 00 00 00 00 
2658   1954 00 00 00 00 
2658   1958 00 00 00 00 
2658   195C 00 00 00 00 
2658   1960 00 00 00 00 
2658   1964 00 00 00 00 
2658   1968 00 00 00 00 
2658   196C 00 00 00 00 
2658   1970 00 00 00 00 
2658   1974 00 00 00 00 
2658   1978 00 00 00 00 
2658   197C 00 00 00 00 
2658   1980 00 00 00 00 
2658   1984 00 00 00 00 
2658   1988 00 00 00 00 
2658   198C 00 00 00 00 
2658   1990 00 00 00 00 
2658   1994 00 00 00 00 
2658   1998 00 00 00 00 
2658   199C 00 00 00 00 
2658   19A0 00 00 00 00 
2658   19A4 00 00 00 00 
2659   19A8 20 20 20 20 _currState_data: .db $20,$20,$20,$20,$20,$20,$20,$20,$20,$20,$20,$20,$20,$20,$20,
2659   19AC 20 20 20 20 
2659   19B0 20 20 20 20 
2659   19B4 20 20 20 
2660   19B7 20 20 20 20 .db $20,$20,$20,$20,$20,$20,$20,$20,$20,$20,$20,$20,$20,$20,$20,$20,
2660   19BB 20 20 20 20 
2660   19BF 20 20 20 20 
2660   19C3 20 20 20 20 
2661   19C7 20 20 20 20 .db $20,$20,$20,$20,$20,$20,$20,$20,$20,$20,$20,$20,$20,$20,$20,$20,
2661   19CB 20 20 20 20 
2661   19CF 20 20 20 20 
2661   19D3 20 20 20 20 
2662   19D7 20 20 20 20 .db $20,$20,$20,$20,$20,$20,$20,$20,$20,$20,$20,$20,$20,$20,$20,$20,
2662   19DB 20 20 20 20 
2662   19DF 20 20 20 20 
2662   19E3 20 20 20 20 
2663   19E7 20 20 20 20 .db $20,$20,$20,$20,$20,$20,$20,$20,$20,$20,$20,$20,$20,$20,$20,$20,
2663   19EB 20 20 20 20 
2663   19EF 20 20 20 20 
2663   19F3 20 20 20 20 
2664   19F7 20 20 20 20 .db $20,$20,$20,$20,$20,$20,$20,$20,$20,$20,$20,$20,$20,$20,$20,$20,
2664   19FB 20 20 20 20 
2664   19FF 20 20 20 20 
2664   1A03 20 20 20 20 
2665   1A07 20 20 20 20 .db $20,$20,$20,$20,$20,$20,$20,$20,$20,$20,$20,$20,$20,$20,$20,$20,
2665   1A0B 20 20 20 20 
2665   1A0F 20 20 20 20 
2665   1A13 20 20 20 20 
2666   1A17 20 20 20 20 .db $20,$20,$20,$20,$20,$20,$20,$20,$20,$20,$20,$20,$20,$20,$20,$20,
2666   1A1B 20 20 20 20 
2666   1A1F 20 20 20 20 
2666   1A23 20 20 20 20 
2667   1A27 20 20 20 20 .db $20,$20,$20,$20,$20,$20,$20,$20,$20,$20,$20,$20,$20,$20,$20,$20,
2667   1A2B 20 20 20 20 
2667   1A2F 20 20 20 20 
2667   1A33 20 20 20 20 
2668   1A37 20 20 20 20 .db $20,$20,$20,$20,$40,$20,$20,$20,$20,$20,$20,$20,$20,$20,$20,$20,
2668   1A3B 40 20 20 20 
2668   1A3F 20 20 20 20 
2668   1A43 20 20 20 20 
2669   1A47 20 20 20 20 .db $20,$20,$20,$20,$20,$20,$20,$20,$20,$20,$20,$20,$20,$20,$20,$20,
2669   1A4B 20 20 20 20 
2669   1A4F 20 20 20 20 
2669   1A53 20 20 20 20 
2670   1A57 20 20 20 20 .db $20,$20,$20,$20,$20,$20,$20,$20,$20,$20,$40,$20,$40,$20,$20,$20,
2670   1A5B 20 20 20 20 
2670   1A5F 20 20 40 20 
2670   1A63 40 20 20 20 
2671   1A67 20 20 20 20 .db $20,$20,$20,$20,$20,$20,$20,$20,$20,$20,$20,$20,$20,$20,$20,$20,
2671   1A6B 20 20 20 20 
2671   1A6F 20 20 20 20 
2671   1A73 20 20 20 20 
2672   1A77 20 20 20 20 .db $20,$20,$20,$20,$20,$20,$20,$20,$40,$40,$20,$20,$20,$20,$20,$20,
2672   1A7B 20 20 20 20 
2672   1A7F 40 40 20 20 
2672   1A83 20 20 20 20 
2673   1A87 40 40 20 20 .db $40,$40,$20,$20,$20,$20,$20,$20,$20,$20,$20,$20,$20,$20,$40,$40,
2673   1A8B 20 20 20 20 
2673   1A8F 20 20 20 20 
2673   1A93 20 20 40 40 
2674   1A97 20 20 20 20 .db $20,$20,$20,$20,$20,$20,$20,$20,$20,$20,$20,$20,$20,$20,$20,$40,
2674   1A9B 20 20 20 20 
2674   1A9F 20 20 20 20 
2674   1AA3 20 20 20 40 
2675   1AA7 20 20 20 40 .db $20,$20,$20,$40,$20,$20,$20,$20,$40,$40,$20,$20,$20,$20,$20,$20,
2675   1AAB 20 20 20 20 
2675   1AAF 40 40 20 20 
2675   1AB3 20 20 20 20 
2676   1AB7 20 20 20 20 .db $20,$20,$20,$20,$20,$20,$40,$40,$20,$20,$20,$20,$40,$40,$20,$20,
2676   1ABB 20 20 40 40 
2676   1ABF 20 20 20 20 
2676   1AC3 40 40 20 20 
2677   1AC7 20 20 20 20 .db $20,$20,$20,$20,$20,$20,$40,$20,$20,$20,$20,$20,$40,$20,$20,$20,
2677   1ACB 20 20 40 20 
2677   1ACF 20 20 20 20 
2677   1AD3 40 20 20 20 
2678   1AD7 40 40 20 20 .db $40,$40,$20,$20,$20,$20,$20,$20,$20,$20,$20,$20,$20,$20,$20,$20,
2678   1ADB 20 20 20 20 
2678   1ADF 20 20 20 20 
2678   1AE3 20 20 20 20 
2679   1AE7 20 20 20 20 .db $20,$20,$20,$20,$40,$40,$20,$20,$20,$20,$20,$20,$20,$20,$40,$20,
2679   1AEB 40 40 20 20 
2679   1AEF 20 20 20 20 
2679   1AF3 20 20 40 20 
2680   1AF7 20 20 40 20 .db $20,$20,$40,$20,$40,$40,$20,$20,$20,$20,$40,$20,$40,$20,$20,$20,
2680   1AFB 40 40 20 20 
2680   1AFF 20 20 40 20 
2680   1B03 40 20 20 20 
2681   1B07 20 20 20 20 .db $20,$20,$20,$20,$20,$20,$20,$20,$20,$20,$20,$20,$20,$20,$20,$20,
2681   1B0B 20 20 20 20 
2681   1B0F 20 20 20 20 
2681   1B13 20 20 20 20 
2682   1B17 20 20 20 20 .db $20,$20,$20,$20,$20,$20,$40,$20,$20,$20,$20,$20,$40,$20,$20,$20,
2682   1B1B 20 20 40 20 
2682   1B1F 20 20 20 20 
2682   1B23 40 20 20 20 
2683   1B27 20 20 20 20 .db $20,$20,$20,$20,$40,$20,$20,$20,$20,$20,$20,$20,$20,$20,$20,$20,
2683   1B2B 40 20 20 20 
2683   1B2F 20 20 20 20 
2683   1B33 20 20 20 20 
2684   1B37 20 20 20 20 .db $20,$20,$20,$20,$20,$20,$20,$20,$20,$20,$20,$20,$20,$20,$20,$40,
2684   1B3B 20 20 20 20 
2684   1B3F 20 20 20 20 
2684   1B43 20 20 20 40 
2685   1B47 20 20 20 40 .db $20,$20,$20,$40,$20,$20,$20,$20,$20,$20,$20,$20,$20,$20,$20,$20,
2685   1B4B 20 20 20 20 
2685   1B4F 20 20 20 20 
2685   1B53 20 20 20 20 
2686   1B57 20 20 20 20 .db $20,$20,$20,$20,$20,$20,$20,$20,$20,$20,$20,$20,$20,$20,$20,$20,
2686   1B5B 20 20 20 20 
2686   1B5F 20 20 20 20 
2686   1B63 20 20 20 20 
2687   1B67 20 20 20 20 .db $20,$20,$20,$20,$20,$20,$20,$20,$40,$40,$20,$20,$20,$20,$20,$20,
2687   1B6B 20 20 20 20 
2687   1B6F 40 40 20 20 
2687   1B73 20 20 20 20 
2688   1B77 20 20 20 20 .db $20,$20,$20,$20,$20,$20,$20,$20,$20,$20,$20,$20,$20,$20,$20,$20,
2688   1B7B 20 20 20 20 
2688   1B7F 20 20 20 20 
2688   1B83 20 20 20 20 
2689   1B87 20 20 20 20 .db $20,$20,$20,$20,$20,$20,$20,$20,$20,$20,$20,$20,$20,$20,$20,$20,
2689   1B8B 20 20 20 20 
2689   1B8F 20 20 20 20 
2689   1B93 20 20 20 20 
2690   1B97 20 20 20 20 .db $20,$20,$20,$20,$20,$20,$20,$20,$20,$20,$20,$20,$20,$20,$20,$20,
2690   1B9B 20 20 20 20 
2690   1B9F 20 20 20 20 
2690   1BA3 20 20 20 20 
2691   1BA7 20 20 20 20 .db $20,$20,$20,$20,$20,$20,$20,$20,$20,$20,$20,$20,$20,$20,$20,$20,
2691   1BAB 20 20 20 20 
2691   1BAF 20 20 20 20 
2691   1BB3 20 20 20 20 
2692   1BB7 20 20 20 20 .db $20,$20,$20,$20,$20,$20,$20,$20,$20,$20,$20,$20,$20,$20,$20,$20,
2692   1BBB 20 20 20 20 
2692   1BBF 20 20 20 20 
2692   1BC3 20 20 20 20 
2693   1BC7 20 20 20 20 .db $20,$20,$20,$20,$20,$20,$20,$20,$20,$20,$20,$20,$20,$20,$20,$20,
2693   1BCB 20 20 20 20 
2693   1BCF 20 20 20 20 
2693   1BD3 20 20 20 20 
2694   1BD7 20 20 20 20 .db $20,$20,$20,$20,$20,$20,$20,$20,$20,$20,$20,$20,$20,$20,$20,$20,
2694   1BDB 20 20 20 20 
2694   1BDF 20 20 20 20 
2694   1BE3 20 20 20 20 
2695   1BE7 20 20 20 20 .db $20,$20,$20,$20,$20,$20,$20,$20,$20,$20,$20,$20,$20,$20,$20,$20,
2695   1BEB 20 20 20 20 
2695   1BEF 20 20 20 20 
2695   1BF3 20 20 20 20 
2696   1BF7 20 20 20 20 .db $20,$20,$20,$20,$20,$20,$20,$20,$20,$20,$20,$20,$20,$20,$20,$20,
2696   1BFB 20 20 20 20 
2696   1BFF 20 20 20 20 
2696   1C03 20 20 20 20 
2697   1C07 20 20 20 20 .db $20,$20,$20,$20,$20,$20,$20,$20,$20,$20,$20,$20,$20,$20,$20,$20,
2697   1C0B 20 20 20 20 
2697   1C0F 20 20 20 20 
2697   1C13 20 20 20 20 
2698   1C17 20 20 20 20 .db $20,$20,$20,$20,$20,$20,$20,$20,$20,$20,$20,$20,$20,$20,$20,$20,
2698   1C1B 20 20 20 20 
2698   1C1F 20 20 20 20 
2698   1C23 20 20 20 20 
2699   1C27 20 20 20 20 .db $20,$20,$20,$20,$20,$20,$20,$20,$20,$20,$20,$20,$20,$20,$20,$20,
2699   1C2B 20 20 20 20 
2699   1C2F 20 20 20 20 
2699   1C33 20 20 20 20 
2700   1C37 20 20 20 20 .db $20,$20,$20,$20,$20,$20,$20,$20,$20,$20,$20,$20,$20,$20,$20,$20,
2700   1C3B 20 20 20 20 
2700   1C3F 20 20 20 20 
2700   1C43 20 20 20 20 
2701   1C47 20 20 20 20 .db $20,$20,$20,$20,$20,$20,$20,$20,$20,$20,$20,$20,$20,$20,$20,$20,
2701   1C4B 20 20 20 20 
2701   1C4F 20 20 20 20 
2701   1C53 20 20 20 20 
2702   1C57 20 20 20 20 .db $20,$20,$20,$20,$20,$20,$20,$20,$20,$20,$20,$20,$20,$20,$20,$20,
2702   1C5B 20 20 20 20 
2702   1C5F 20 20 20 20 
2702   1C63 20 20 20 20 
2703   1C67 20 20 20 20 .db $20,$20,$20,$20,$20,$20,$20,$20,$20,$20,$20,$20,$20,$20,$20,$20,
2703   1C6B 20 20 20 20 
2703   1C6F 20 20 20 20 
2703   1C73 20 20 20 20 
2704   1C77 20 20 20 20 .db $20,$20,$20,$20,$20,$20,$20,$20,$20,$20,$20,$20,$20,$20,$20,$20,
2704   1C7B 20 20 20 20 
2704   1C7F 20 20 20 20 
2704   1C83 20 20 20 20 
2705   1C87 20 20 20 20 .db $20,$20,$20,$20,$20,$20,$20,$20,$20,$20,$20,$20,$20,$20,$20,$20,
2705   1C8B 20 20 20 20 
2705   1C8F 20 20 20 20 
2705   1C93 20 20 20 20 
2706   1C97 20 20 20 20 .db $20,$20,$20,$20,$20,$20,$20,$20,$20,$20,$20,$20,$20,$20,$20,$20,
2706   1C9B 20 20 20 20 
2706   1C9F 20 20 20 20 
2706   1CA3 20 20 20 20 
2707   1CA7 20 20 20 20 .db $20,$20,$20,$20,$20,$20,$20,$20,$20,$20,$20,$20,$20,$20,$20,$20,
2707   1CAB 20 20 20 20 
2707   1CAF 20 20 20 20 
2707   1CB3 20 20 20 20 
2708   1CB7 20 20 20 20 .db $20,$20,$20,$20,$20,$20,$20,$20,$20,$20,$20,$20,$20,$20,$20,$20,
2708   1CBB 20 20 20 20 
2708   1CBF 20 20 20 20 
2708   1CC3 20 20 20 20 
2709   1CC7 20          .db $20,
2710   1CC8             
2711   1CC8 00 00 00 00 .fill 400, 0
2711   1CCC 00 00 00 00 
2711   1CD0 00 00 00 00 
2711   1CD4 00 00 00 00 
2711   1CD8 00 00 00 00 
2711   1CDC 00 00 00 00 
2711   1CE0 00 00 00 00 
2711   1CE4 00 00 00 00 
2711   1CE8 00 00 00 00 
2711   1CEC 00 00 00 00 
2711   1CF0 00 00 00 00 
2711   1CF4 00 00 00 00 
2711   1CF8 00 00 00 00 
2711   1CFC 00 00 00 00 
2711   1D00 00 00 00 00 
2711   1D04 00 00 00 00 
2711   1D08 00 00 00 00 
2711   1D0C 00 00 00 00 
2711   1D10 00 00 00 00 
2711   1D14 00 00 00 00 
2711   1D18 00 00 00 00 
2711   1D1C 00 00 00 00 
2711   1D20 00 00 00 00 
2711   1D24 00 00 00 00 
2711   1D28 00 00 00 00 
2711   1D2C 00 00 00 00 
2711   1D30 00 00 00 00 
2711   1D34 00 00 00 00 
2711   1D38 00 00 00 00 
2711   1D3C 00 00 00 00 
2711   1D40 00 00 00 00 
2711   1D44 00 00 00 00 
2711   1D48 00 00 00 00 
2711   1D4C 00 00 00 00 
2711   1D50 00 00 00 00 
2711   1D54 00 00 00 00 
2711   1D58 00 00 00 00 
2711   1D5C 00 00 00 00 
2711   1D60 00 00 00 00 
2711   1D64 00 00 00 00 
2711   1D68 00 00 00 00 
2711   1D6C 00 00 00 00 
2711   1D70 00 00 00 00 
2711   1D74 00 00 00 00 
2711   1D78 00 00 00 00 
2711   1D7C 00 00 00 00 
2711   1D80 00 00 00 00 
2711   1D84 00 00 00 00 
2711   1D88 00 00 00 00 
2711   1D8C 00 00 00 00 
2711   1D90 00 00 00 00 
2711   1D94 00 00 00 00 
2711   1D98 00 00 00 00 
2711   1D9C 00 00 00 00 
2711   1DA0 00 00 00 00 
2711   1DA4 00 00 00 00 
2711   1DA8 00 00 00 00 
2711   1DAC 00 00 00 00 
2711   1DB0 00 00 00 00 
2711   1DB4 00 00 00 00 
2711   1DB8 00 00 00 00 
2711   1DBC 00 00 00 00 
2711   1DC0 00 00 00 00 
2711   1DC4 00 00 00 00 
2711   1DC8 00 00 00 00 
2711   1DCC 00 00 00 00 
2711   1DD0 00 00 00 00 
2711   1DD4 00 00 00 00 
2711   1DD8 00 00 00 00 
2711   1DDC 00 00 00 00 
2711   1DE0 00 00 00 00 
2711   1DE4 00 00 00 00 
2711   1DE8 00 00 00 00 
2711   1DEC 00 00 00 00 
2711   1DF0 00 00 00 00 
2711   1DF4 00 00 00 00 
2711   1DF8 00 00 00 00 
2711   1DFC 00 00 00 00 
2711   1E00 00 00 00 00 
2711   1E04 00 00 00 00 
2711   1E08 00 00 00 00 
2711   1E0C 00 00 00 00 
2711   1E10 00 00 00 00 
2711   1E14 00 00 00 00 
2711   1E18 00 00 00 00 
2711   1E1C 00 00 00 00 
2711   1E20 00 00 00 00 
2711   1E24 00 00 00 00 
2711   1E28 00 00 00 00 
2711   1E2C 00 00 00 00 
2711   1E30 00 00 00 00 
2711   1E34 00 00 00 00 
2711   1E38 00 00 00 00 
2711   1E3C 00 00 00 00 
2711   1E40 00 00 00 00 
2711   1E44 00 00 00 00 
2711   1E48 00 00 00 00 
2711   1E4C 00 00 00 00 
2711   1E50 00 00 00 00 
2711   1E54 00 00 00 00 
2712   1E58 00 00       _rng_state: .dw $0000
2713   1E5A 00 00       _free_list: .dw 0
2714   1E5C 40 20 00    _s0: .db "@ ", 0
2715   1E5F 2E 20 00    _s1: .db ". ", 0
2716   1E62 0A 0D 00    _s2: .db "\n\r", 0
2717   1E65 0A 0D 50 72 _s3: .db "\n\rPress CTRL+C to quit.\n\r", 0
2717   1E69 65 73 73 20 
2717   1E6D 43 54 52 4C 
2717   1E71 2B 43 20 74 
2717   1E75 6F 20 71 75 
2717   1E79 69 74 2E 0A 
2717   1E7D 0D 00 
2718   1E7F 55 6E 65 78 _s4: .db "Unexpected format in printf.", 0
2718   1E83 70 65 63 74 
2718   1E87 65 64 20 66 
2718   1E8B 6F 72 6D 61 
2718   1E8F 74 20 69 6E 
2718   1E93 20 70 72 69 
2718   1E97 6E 74 66 2E 
2718   1E9B 00 
2719   1E9C 45 72 72 6F _s5: .db "Error: Unknown argument type.\n", 0
2719   1EA0 72 3A 20 55 
2719   1EA4 6E 6B 6E 6F 
2719   1EA8 77 6E 20 61 
2719   1EAC 72 67 75 6D 
2719   1EB0 65 6E 74 20 
2719   1EB4 74 79 70 65 
2719   1EB8 2E 0A 00 
2720   1EBB             
2721   1EBB BD 1E       _heap_top: .dw _heap
2722   1EBD 00          _heap: .db 0
2723   1EBE             ; --- END DATA SEGMENT
2724   1EBE             
2725   1EBE             .end
tasm: Number of errors = 0
